(dp1
S'output'
p2
S"<type 'exceptions.NameError'> name 'x' is not defined"
p3
sS'layer'
p4
S'/home/sai/PappuDs/V7/PROJECT/web2py/applications/Cabshare/views/default/ntf.html'
p5
sS'code'
p6
S'response.write(\'<!DOCTYPE html>\\n<!--[if (gt IE 9)|!(IE)]><!--> <html class="no-js" lang="\', escape=False)\nresponse.write(T.accepted_language or \'en\')\nresponse.write(\'"> <!--<![endif]-->\\n  <head>\\n    <meta charset="utf-8">\\n    <!-- www.phpied.com/conditional-comments-block-downloads/ -->\\n    <!-- Always force latest IE rendering engine\\n         (even in intranet) & Chrome Frame\\n         Remove this if you use the .htaccess -->\\n    <meta http-equiv="X-UA-Compatible" content="IE=edge\', escape=False)\nresponse.write(not request.is_local and \',chrome=1\' or \'\')\nresponse.write(\'">\\n    <!--  Mobile Viewport Fix\\n          j.mp/mobileviewport & davidbcalhoun.com/2010/viewport-metatag\\n          device-width: Occupy full width of the screen in its current orientation\\n          initial-scale = 1.0 retains dimensions instead of zooming out if page height > device height\\n          user-scalable = yes allows the user to zoom in -->\\n    <meta name="viewport" content="width=device-width, initial-scale=1.0">\\n    <title>\', escape=False)\nresponse.write(response.title or request.application)\nresponse.write(\'</title>\\n    <!-- http://dev.w3.org/html5/markup/meta.name.html -->\\n    <meta name="application-name" content="\', escape=False)\nresponse.write(request.application)\nresponse.write(\'">\\n    <!-- Speaking of Google, don\\\'t forget to set your site up:\\n         http://google.com/webmasters -->\\n    <meta name="google-site-verification" content="">\\n    <!-- include stylesheets -->\\n    <link rel="stylesheet" href="\', escape=False)\nresponse.write(URL(\'static\',\'css/bootstrap.min.css\'))\nresponse.write(\'"/>\\n    <link rel="stylesheet" href="\', escape=False)\nresponse.write(URL(\'static\',\'css/web2py-bootstrap3.css\'))\nresponse.write(\'"/>\\n    <link rel="shortcut icon" href="\', escape=False)\nresponse.write(URL(\'static\',\'images/favicon.ico\'))\nresponse.write(\'" type="image/x-icon">\\n    <link rel="apple-touch-icon" href="\', escape=False)\nresponse.write(URL(\'static\',\'images/favicon.png\'))\nresponse.write(\'">\\n    <!-- All JavaScript at the bottom, except for Modernizr which enables\\n         HTML5 elements & feature detects -->\\n    <script src="\', escape=False)\nresponse.write(URL(\'static\',\'js/modernizr-2.8.3.min.js\'))\nresponse.write(\'"></script>\\n    <!--[if lt IE 9]>\\n        <script src="\', escape=False)\nresponse.write(URL(\'static\',\'js/respond-1.4.2.min.js\'))\nresponse.write(\'"></script>\\n        <![endif]-->\\n    <!-- Favicons -->\\n    \', escape=False)\nresponse.write(\'<script type="text/javascript"><!--\\n    // These variables are used by the web2py_ajax_init function in web2py_ajax.js (which is loaded below).\\n    var w2p_ajax_confirm_message = "\', escape=False)\nresponse.write(T(\'Are you sure you want to delete this object?\'))\nresponse.write(\'";\\n    var w2p_ajax_disable_with_message = "\', escape=False)\nresponse.write(T(\'Working...\'))\nresponse.write(\'";\\n    var w2p_ajax_date_format = "\', escape=False)\nresponse.write(T(\'%Y-%m-%d\'))\nresponse.write(\'";\\n    var w2p_ajax_datetime_format = "\', escape=False)\nresponse.write(T(\'%Y-%m-%d %H:%M:%S\'))\nresponse.write(\'";\\n    var ajax_error_500 = \\\'\', escape=False)\nresponse.write(T.M(\'An error occured, please [[reload %s]] the page\') % URL(args=request.args, vars=request.get_vars))\nresponse.write("\'\\n    //--></script>\\n", escape=False)\nresponse.files.insert(0,URL(\'static\',\'js/jquery.js\'))\nresponse.files.insert(1,URL(\'static\',\'css/calendar.css\'))\nresponse.files.insert(2,URL(\'static\',\'js/calendar.js\'))\nresponse.files.insert(3,URL(\'static\',\'js/web2py.js\'))\nresponse.include_meta()\nresponse.include_files()\nresponse.write(\'\\n\', escape=False)\nresponse.write(\' <!-- this includes jquery.js, calendar.js/.css and web2py.js -->\\n    \', escape=False)\nresponse.write(\'\\n    \', escape=False)\n# using sidebars need to know what sidebar you want to use\nmc0 = \'col-md-12\'\nmc1 = \'col-md-9\'\nmc2 = \'col-md-6\'\nleft_sidebar_enabled = globals().get(\'left_sidebar_enabled\', False)\nright_sidebar_enabled = globals().get(\'right_sidebar_enabled\', False)\nmiddle_column = {0: mc0, 1: mc1, 2: mc2}[\n(left_sidebar_enabled and 1 or 0)+(right_sidebar_enabled and 1 or 0)]\nresponse.write(\'\\n  </head>\\n  <body>\\n    <!--[if lt IE 8]><p class="browserupgrade">You are using an <strong>outdated</strong> browser. Please <a href="http://browsehappy.com/">upgrade your browser</a> to improve your experience.</p><![endif]-->\\n    <div class="w2p_flash alert alert-dismissable">\', escape=False)\nresponse.write(response.flash or \'\')\nresponse.write(\'</div>\\n    <!-- Navbar ======================================= -->\\n    <nav class="navbar navbar-default navbar-fixed-top" role="navigation">\\n      <div class="container-fluid">\\n        <div class="navbar-header">\\n          <button type="button" class="navbar-toggle" data-toggle="collapse" data-target=".navbar-collapse">\\n            <span class="sr-only">Toggle navigation</span>\\n            <span class="icon-bar"></span>\\n            <span class="icon-bar"></span>\\n            <span class="icon-bar"></span>\\n          </button>\\n          \', escape=False)\nresponse.write(response.logo or \'\')\nresponse.write(\'\\n        </div>\\n        <div class="collapse navbar-collapse navbar-ex1-collapse">\\n          <ul class="nav navbar-nav navbar-right">\\n            \', escape=False)\nresponse.write(\'auth\' in globals() and auth.navbar(\'Welcome\',mode=\'dropdown\') or \'\')\nresponse.write(\'\\n          </ul>\\n          \', escape=False)\nif response.menu:\n    response.write(\'\\n          \', escape=False)\n    response.write(MENU(response.menu, _class=\'nav navbar-nav\',li_class=\'dropdown\',ul_class=\'dropdown-menu\'))\n    response.write(\'\\n          \', escape=False)\n    pass\nresponse.write(\'\\n        </div>\\n      </div>\\n    </nav>\\n    <style>\\n      #web2py-logo b{\\n      color: black;\\n      }\\n           .navbar{\\n        margin-left:120px;\\n        display: block;\\n        width: 150px;\\n        height: 900px;\\n      background: \\t#ff8080;\\n      border-left: solid black;\\n\\t   }\\n\\n\\t   .navbar .nav li a{\\n\\t   \\n\\t   color: black;\\n\\t   }\\n\\t   .navbar .nav li a:hover{\\n\\t   \\n\\t   color: white;\\n      }\\n\\n      body{\\n      //background: #4da9ff;\\n      //background: -webkit-linear-gradient( #4da9ff, #b3daff); /* For Safari 5.1 to 6.0 */\\n    //background: -o-linear-gradient( #4da9ff, #b3daff); /* For Opera 11.1 to 12.0 */\\n    //background: -moz-linear-gradient( #4da9ff, #b3daff); /* For Firefox 3.6 to 15 */\\n    background: linear-gradient( #4da9ff, #b3daff);\\n      }\\n        h1,h2,h3,h4,h5,h6{\\n            //font-family:"Times New Roman";\\n            //font-family:"Georgia";\\n            font-family:"Serif";\\n        }\\n      </style>\\n      <link rel="icon" href="\', escape=False)\nresponse.write(URL(\'static\',\'images/tx.ico\'))\nresponse.write(\'">\\n    <!-- Masthead ===================================== -->    \\n    \', escape=False)\nresponse.write(\'\\n    \', escape=False)\nresponse.write(\'\\n    <!-- Main ========================================= -->\\n    <!-- Begin page content -->\\n    <div class="container-fluid main-container">\\n      \', escape=False)\nif left_sidebar_enabled:\n    response.write(\'\\n        <div class="col-md-3 left-sidebar">\\n            \', escape=False)\n    response.write(\'\\n            <h3>Left Sidebar</h3>\\n            <p></p>\\n            \', escape=False)\n    response.write(\'\\n        </div>\\n      \', escape=False)\n    pass\nresponse.write(\'\\n      <div class="\', escape=False)\nresponse.write(middle_column)\nresponse.write(\'">\\n        \', escape=False)\nresponse.write(\'\\n        \', escape=False)\nresponse.write(\'\\n<div id="page">\\n<h2>Notifications</h2>\\n<table class="table" id="ntt">\\n    \', escape=False)\ncnt=0\nresponse.write(\'\\n    \', escape=False)\nfor j in nans:\n    response.write(\'\\n    \', escape=False)\n    if cnt==7:break\n    response.write(\'\\n    <tr  class="one">\\n      <td  rowspan="2">\', escape=False)\n    if j.type_of==1:\n        response.write(\'<a href=\', escape=False)\n        response.write(URL(\'default\',\'profile_view\',args=ids[cnt]))\n        response.write(\'>\', escape=False)\n        response.write(IMG(_src=URL(\'default\',\'download\',args=tt[cnt]),_alt="Pic not Available",_height="60px",_weight="60px"))\n        response.write(\'</a>\', escape=False)\n        pass\n    response.write(\'\\n\\t\', escape=False)\n    if j.type_of==2:\n        response.write(\'<a href=\', escape=False)\n        response.write(URL(\'default\',\'profile_view\',args=ids[cnt]))\n        response.write(\'>\', escape=False)\n        response.write(IMG(_src=URL(\'default\',\'download\',args=tt[cnt]),_alt="Pic Not Available",_height="60px",_weight="60px"))\n        response.write(\'</a>\', escape=False)\n        pass\n    response.write(\'\\n\\t\', escape=False)\n    if j.type_of==3:\n        response.write(\'<a href=\', escape=False)\n        response.write(URL(\'default\',\'fill_feedback\',args=ids[cnt]))\n        response.write(\'>\', escape=False)\n        response.write(IMG(_src=URL(\'static\',\'images\',args="feedback.jpg"),_alt="Pic not available",_height="60px",_weight="60px"))\n        pass\n    response.write(\'\\n\\t  \', escape=False)\n    if j.type_of==4:\n        response.write(\'<a href=\', escape=False)\n        response.write(URL(\'default\',\'check_feedback\',args=ids[cnt]))\n        response.write(\'>\', escape=False)\n        response.write(IMG(_src=URL(\'static\',\'images\',args="check.jpg"),_alt="Pic not Available",_height="60px",_weight="60px"))\n        pass\n    response.write(\'\\n      </td>      \\n\\n      <td> \', escape=False)\n    if j.type_of==1:\n        response.write(\'<a onclick="ajax (\\\'\', escape=False)\n        response.write(URL(\'default\',\'nvis\',args=j.id))\n        response.write(\'\\\')" href="\', escape=False)\n        response.write(URL(\'default\',\'particularasadmin\',args=j.tripid))\n        response.write(\'"> \', escape=False)\n        response.write(name[cnt])\n        response.write(\' has sent you a requset to join trip.</a>\', escape=False)\n        pass\n    response.write(\'\\n\\t\', escape=False)\n    if j.type_of==2:\n        response.write(\'<a onclick="ajax(\\\'\', escape=False)\n        response.write(URL(\'default\',\'nvis\',args=j.id))\n        response.write(\'\\\')" href="\', escape=False)\n        response.write(URL(\'default\',\'particular\',args=j.tripid))\n        response.write(\'"> \', escape=False)\n        response.write(name[cnt])\n        response.write(\' has accepted your requset to join trip.</a>\', escape=False)\n        pass\n    response.write(\'\\n\\t\', escape=False)\n    if j.type_of==3:\n        response.write(\'<a onclick="ajax(\\\'\', escape=False)\n        response.write(URL(\'default\',\'nvis\',args=j.id))\n        response.write(\'\\\')" href="\', escape=False)\n        response.write(URL(\'default\',\'view_feedback\',args=j.tripid))\n        response.write(\'">Please give your valuable feedback about the trip.</a>\', escape=False)\n        pass\n    response.write(\'\\n\\t\', escape=False)\n    if j.type_of==4:\n        response.write(\'View the feedback given about you by \', escape=False)\n        response.write(name[cnt])\n        response.write(\'.\', escape=False)\n        pass\n    response.write(\'\\n      </td>\\n    </tr>\\n    <tr class="two">\\n      <td>This notification popped up at \', escape=False)\n    response.write(j.time_of)\n    response.write(\' on \', escape=False)\n    response.write(j.date_of)\n    response.write(\'.</td>\\n    </tr>\\n    \', escape=False)\n    cnt = cnt+1\n    response.write(\'\\n    \', escape=False)\n    pass\nresponse.write(\'\\n  </table>\\n\', escape=False)\nif(pageno!=0):\n    response.write(\'\\n<a href="\', escape=False)\n    response.write(URL(args=[x-1]))\n    response.write(\'"><button>prev</button></a>\\n\', escape=False)\n    pass\nresponse.write(\'\\n\', escape=False)\nif(len(nans)>7):\n    response.write(\'\\n<a href="\', escape=False)\n    response.write(URL(args=[x+1]))\n    response.write(\'"><button>next</button></a>\\n\', escape=False)\n    pass\nresponse.write(\'\\n    </div>\\n    <style>\\n        #page{\\n        margin-top:-40px;\\n        margin-left:270px;\\n        margin-right:120px;\\n    }\\n    </style>\\n\', escape=False)\nresponse.write(\'\\n        \', escape=False)\nresponse.write(\'\\n      </div>\\n\\n      \', escape=False)\nif right_sidebar_enabled:\n    response.write(\'\\n        <div class="col-md-3">\\n            \', escape=False)\n    response.write(\'\\n            <h3>Right Sidebar</h3>\\n            <p></p>\\n            \', escape=False)\n    response.write(\'\\n        </div>\\n      \', escape=False)\n    pass\nresponse.write(\'\\n\\n    </div>\\n\\n    \', escape=False)\nresponse.write(\' <!-- this is default footer -->      \\n    <footer class="footer">\\n      <div class="container-fluid">\\n        <div class="copyright pull-left">\', escape=False)\nresponse.write(T(\'NoCopyright\'))\nresponse.write(\' &#169; \', escape=False)\nresponse.write(request.now.year)\nresponse.write(\'</div>\\n          <div id="poweredBy" class="pull-right">\\n            \', escape=False)\nresponse.write(T(\'Powered by\'))\nresponse.write(\'\\n            <a href="http://www.iiit.ac.in/">IIIT-H</a>\\n          </div>\\n      </div>\\n    </footer>\\n      <style>\\n        .footer{\\n\\tdisplay: block;\\n        margin-left:270px;\\n           width:945px;\\n\\t   color : white;\\n\\t   posotion: relative;\\n\\t   bottom: 0px;\\n\\t   background: \\t#ff8080;\\n\\t   border-top: solid  black;\\n    }\\n      </style>\\n    \', escape=False)\nresponse.write(\'\\n    <!-- The javascript =============================== -->\\n    <script src="\', escape=False)\nresponse.write(URL(\'static\',\'js/bootstrap.min.js\'))\nresponse.write(\'"></script>\\n    <script src="\', escape=False)\nresponse.write(URL(\'static\',\'js/web2py-bootstrap3.js\'))\nresponse.write(\'"></script>\\n    \', escape=False)\nresponse.write(\'\\n    \', escape=False)\nif response.google_analytics_id:\n    response.write(\'\\n    <!-- Analytics ==================================== -->\\n    <script src="\', escape=False)\n    response.write(URL(\'static\',\'js/analytics.min.js\'))\n    response.write(\'"></script>\\n    <script type="text/javascript">\\n      analytics.initialize({\\n      \\\'Google Analytics\\\':{trackingId:\\\'\', escape=False)\n    response.write(response.google_analytics_id)\n    response.write("\'}\\n      });\\n    </script>\\n    ", escape=False)\n    pass\nresponse.write(\'\\n    <!-- Share ============================y============ -->\\n    <script src="\', escape=False)\nresponse.write(URL(\'static\',\'js/share.js\',vars=dict(static=URL(\'static\',\'images\'))))\nresponse.write(\'"></script>\\n  </body>\\n</html>\\n\', escape=False)'
p7
sS'snapshot'
p8
(dp9
sS'traceback'
p10
S'Traceback (most recent call last):\n  File "/home/sai/PappuDs/V7/PROJECT/web2py/gluon/restricted.py", line 227, in restricted\n    exec ccode in environment\n  File "/home/sai/PappuDs/V7/PROJECT/web2py/applications/Cabshare/views/default/ntf.html", line 163, in <module>\nNameError: name \'x\' is not defined\n'
p11
s.