(dp1
S'output'
p2
S"<type 'exceptions.TypeError'> __init__() got an unexpected keyword argument 'Label'"
p3
sS'layer'
p4
S'/home/krishna/ACADEMICS/SEM(1-2)/ASGN AND QUESTIONS/ITWS-2/PROJECT/V3/PROJECT/web2py/applications/Cabshare/models/db.py'
p5
sS'code'
p6
S'# -*- coding: utf-8 -*-\n\n#########################################################################\n## This scaffolding model makes your app work on Google App Engine too\n## File is released under public domain and you can use without limitations\n#########################################################################\n\n## if SSL/HTTPS is properly configured and you want all HTTP requests to\n## be redirected to HTTPS, uncomment the line below:\n# request.requires_https()\n\n## app configuration made easy. Look inside private/appconfig.ini\nfrom gluon.contrib.appconfig import AppConfig\n## once in production, remove reload=True to gain full speed\nmyconf = AppConfig(reload=True)\n\n\nif not request.env.web2py_runtime_gae:\n    ## if NOT running on Google App Engine use SQLite or other DB\n    db = DAL(myconf.take(\'db.uri\'), pool_size=myconf.take(\'db.pool_size\', cast=int), check_reserved=[\'all\'])\nelse:\n    ## connect to Google BigTable (optional \'google:datastore://namespace\')\n    db = DAL(\'google:datastore+ndb\')\n    ## store sessions and tickets there\n    session.connect(request, response, db=db)\n    ## or store session in Memcache, Redis, etc.\n    ## from gluon.contrib.memdb import MEMDB\n    ## from google.appengine.api.memcache import Client\n    ## session.connect(request, response, db = MEMDB(Client()))\n\n## by default give a view/generic.extension to all actions from localhost\n## none otherwise. a pattern can be \'controller/function.extension\'\nresponse.generic_patterns = [\'*\'] if request.is_local else []\n## choose a style for forms\nresponse.formstyle = myconf.take(\'forms.formstyle\')  # or \'bootstrap3_stacked\' or \'bootstrap2\' or other\nresponse.form_label_separator = myconf.take(\'forms.separator\')\n\n\n## (optional) optimize handling of static files\n# response.optimize_css = \'concat,minify,inline\'\n# response.optimize_js = \'concat,minify,inline\'\n## (optional) static assets folder versioning\n# response.static_version = \'0.0.0\'\n#########################################################################\n## Here is sample code if you need for\n## - email capabilities\n## - authentication (registration, login, logout, ... )\n## - authorization (role based authorization)\n## - services (xml, csv, json, xmlrpc, jsonrpc, amf, rss)\n## - old style crud actions\n## (more options discussed in gluon/tools.py)\n#########################################################################\n###All the imports are start here\nfrom gluon.tools import Auth, Service, PluginManager\nfrom applications.Cabshare.modules.countries import *\n\n###and the imports end here.\n\nauth = Auth(db)\nservice = Service()\nplugins = PluginManager()\n\n###I am adding additional fields to the auth_user table.\nauth.settings.extra_fields[\'auth_user\']=[\n    Field(\'Gender\',\'string\',requires=[IS_IN_SET([\'MALE\',\'FEMALE\',\'OTHER\']),IS_NOT_EMPTY() ] ,widget=SQLFORM.widgets.options.widget),\n    Field(\'Pp\',\'upload\',requires=IS_EMPTY_OR(IS_IMAGE()),label=\'Profile Picture\'),\n    Field(\'phone_no\',\'integer\',requires=IS_INT_IN_RANGE(1111111111,9999999999),label="Phone Number"),\nField(\'City\',\'string\',length=64),\nField(\'Country\',requires=[ IS_IN_SET(COUNTRIES), IS_NOT_EMPTY() ] ,widget=SQLFORM.widgets.options.widget),\n    Field(\'dob\',\'date\',requires=[IS_NOT_EMPTY(),IS_DATE()] ,label=\'Date of birth\',widget=SQLFORM.widgets.date.widget),\n    Field(\'mail_nt\',requires=[IS_IN_SET([\'Yes\',\'No\']),IS_NOT_EMPTY()],widget=SQLFORM.widgets.radio.widget,label="Enable e-mail notifications"),\n    Field(\'depend_rate\',\'integer\',readable=False,writable=False,default=-1),#If it is -1 then not rated.\n    Field(\'votes_no\',\'integer\',readable=False,writable=False,default=0),\n    Field(\'trips_no\',\'integer\',readable=False,writable=False,default=0)\n]\n\n\n\n## create all tables needed by auth if not custom tables\nauth.define_tables(username=True, signature=False)\n\n## configure email\n#from gluon.tools import Mail\n#mail  = Mail()\nmail = auth.settings.mailer\nmail.settings.server = \'smtp.gmail.com:587\'\nmail.settings.sender = \'cookbook5398@gmail.com\'\nmail.settings.login = \'cookbook5398:Cookbook\'\nmail.settings.tls = True\n\n## configure auth policy\nauth.settings.registration_requires_verification = False\nauth.settings.registration_requires_approval = False\nauth.settings.reset_password_requires_verification = True\n\n#########################################################################\n## Define your tables below (or better in another model file) for example\n##\n## >>> db.define_table(\'mytable\',Field(\'myfield\',\'string\'))\n##\n## Fields can be \'string\',\'text\',\'password\',\'integer\',\'double\',\'boolean\'\n##       \'date\',\'time\',\'datetime\',\'blob\',\'upload\', \'reference TABLENAME\'\n## There is an implicit \'id integer autoincrement\' field\n## Consult manual for more options, validators, etc.\n##\n## More API examples for controllers:\n##\n## >>> db.mytable.insert(myfield=\'value\')\n## >>> rows=db(db.mytable.myfield==\'value\').select(db.mytable.ALL)\n## >>> for row in rows: print row.id, row.myfield\n#########################################################################\n\n## after defining tables, uncomment below to enable auditing\n# auth.enable_record_versioning(db)\n\n### The table trip details start here....\n\n###This is to check if the login page is cleared or not.\nif db.auth_user(db.auth_user.id==auth.user_id) is not None:\n    usr = db.auth_user(db.auth_user.id==auth.user_id).first_name\nelse:\n    usr = \'\'\n\n###Dont forget to update the value of total_tillnow when you accept the form to people_start,similarly for Bags also.\ndb.define_table(\'trip\',\n                #The first field tells us the id of the user who floated the trip.\n                Field(\'strid\',\'integer\',readable=False,writable=False,default=auth.user_id),\n                Field(\'starter\',\'string\',writable=False,readable=False,default=usr),\n                Field(\'from_place\',\'string\',requires=IS_NOT_EMPTY(),label="Starting Point"),\n                Field(\'to_place\',\'string\',requires=IS_NOT_EMPTY(),label="Destination"),\n                Field(\'date_of_trip\',\'date\',requires=[IS_DATE(),IS_NOT_EMPTY()],label="Date Of Trip"),\n                Field(\'start_up\',\'time\',requires=[IS_TIME(),IS_NOT_EMPTY()], label="Earliest start time"),\n                Field(\'start_end\',\'time\',requires=[IS_TIME(),IS_NOT_EMPTY()] ,label="Latest Start time"),\n                Field(\'people_start\',\'integer\',requires=IS_NOT_EMPTY(),default=1,label="People at Start",widget=SQLFORM.widgets.integer.widget),\n                Field(\'max_people\',\'integer\',requires=IS_NOT_EMPTY(),default=6,label="Maximum People for the trip",widget=SQLFORM.widgets.integer.widget),\n                Field(\'total_tillnow\',\'integer\',readable=False,writable=False),\n                Field(\'bags_start\',\'integer\',requires=IS_NOT_EMPTY(),default=1,label="No Of Bags",widget=SQLFORM.widgets.integer.widget),\n                Field(\'bags_till_now\',\'integer\',readable=False,writable=False)\n )\n\n\n###Finishing trip table.\n\n###Table for users who are added to others\' trip\n\ndb.define_table(\'passenger\',\n               Field(\'userid\',\'integer\'),\n               Field(\'tripid\',\'integer\'))\n\n###\n\n###The votes table.\n\ndb.define_table(\'voting\',\n               Field(\'voterid\',\'integer\',readable=False,writable=False),\n               Field(\'candid\',\'integer\',readable=True,writable=False,Label="Rate the user"),\n               Field(\'tripid\',\'integer\',readable=False,writable=False),\n               Field(\'time_of\',\'time\',readable=False,writable=False),\n               Field(\'date_of\',\'date\',readable=False,writable=False),\n               Field(\'rating\',requires=IS_IN_SET([\'1\',\'2\',\'3\',\'4\',\'5\'])),\n               Field(\'comm\',\'text\',requires=[IS_NOT_EMPTY(),IS_LENGTH(200,0)]))#restricting all comments to 200 characters at max.\n###The votes table ends here.\n\n\n###Notification starts.To be generated by the computer.\ndb.define_table(\'notification\',\n                Field(\'send_id\',\'integer\'),\n                Field(\'rec_id\',\'integer\'),\n                Field(\'tripid\',\'integer\'),\n                Field(\'msg\',\'text\'),\n                Field(\'date_of\',\'date\'),\n                Field(\'time_of\',\'time\'),\n                Field(\'type_of\',\'integer\'),\n                Field(\'status\',\'boolean\'),#0- if it is not seen and 1-if it is seen.\n)\n### typeof parameter-1)Requests coming.2)Accepted requests.3)fill feeedback form.4)\n### Notification ends here.\n\n###Personal messages to users. Form to be created manually and inserted.###1-2 messages###Deciede about form view(SQL or Normal)\ndb.define_table(\'personal_message\',\n                Field(\'send_id\',\'integer\'),\n                Field(\'rec_id\',\'integer\'),\n                Field(\'status\',\'integer\'),#0- if it is not seen and 1-if it is seen.\n                Field(\'msg_date\',\'date\'),\n                Field(\'msg_time\',\'time\'),\n                Field(\'msg\',\'text\'),\n)\n###Persnoal messages ends..\n\n###The comments table of the trip visible to all.\ndb.define_table(\'tc\',\n                Field(\'tid\',\'integer\',readable=False,writable=False),\n                Field(\'comm\',\'text\',requires=[IS_NOT_EMPTY(),IS_LENGTH(200,0)]),\n                Field(\'cmby\',\'string\',readable=False,writable=False,default=usr),\n                Field(\'time_cm\',\'time\'),\n                Field(\'date_cm\',\'date\')\n)\n\n###The comment on trip table is done.\n\n###from and to places for autocomplete set tables dynamically changed.\ndb.define_table(\'froms\',\n                Field(\'place\',\'string\')\n                )\n\ndb.define_table(\'tos\',\n               Field(\'place\',\'string\')\n               )\n### the table of autocomlete is done.\n'
p7
sS'snapshot'
p8
(dp9
S'exception'
p10
(dp11
S'__hash__'
p12
S"<method-wrapper '__hash__' of exceptions.TypeError object>"
p13
sS'__setattr__'
p14
S"<method-wrapper '__setattr__' of exceptions.TypeError object>"
p15
sS'__reduce_ex__'
p16
S'<built-in method __reduce_ex__ of exceptions.TypeError object>'
p17
sS'__getslice__'
p18
S"<method-wrapper '__getslice__' of exceptions.TypeError object>"
p19
sS'__getitem__'
p20
S"<method-wrapper '__getitem__' of exceptions.TypeError object>"
p21
sS'__setstate__'
p22
S'<built-in method __setstate__ of exceptions.TypeError object>'
p23
sS'args'
p24
S'("__init__() got an unexpected keyword argument \'Label\'",)'
p25
sS'__reduce__'
p26
S'<built-in method __reduce__ of exceptions.TypeError object>'
p27
sS'__str__'
p28
S"<method-wrapper '__str__' of exceptions.TypeError object>"
p29
sS'__format__'
p30
S'<built-in method __format__ of exceptions.TypeError object>'
p31
sS'__getattribute__'
p32
S"<method-wrapper '__getattribute__' of exceptions.TypeError object>"
p33
sS'__class__'
p34
S"<type 'exceptions.TypeError'>"
p35
sS'__unicode__'
p36
S'<built-in method __unicode__ of exceptions.TypeError object>'
p37
sS'__delattr__'
p38
S"<method-wrapper '__delattr__' of exceptions.TypeError object>"
p39
sS'__subclasshook__'
p40
S'<built-in method __subclasshook__ of type object>'
p41
sS'__repr__'
p42
S"<method-wrapper '__repr__' of exceptions.TypeError object>"
p43
sS'__dict__'
p44
S'{}'
p45
sS'__sizeof__'
p46
S'<built-in method __sizeof__ of exceptions.TypeError object>'
p47
sS'__doc__'
p48
S"'Inappropriate argument type.'"
p49
sS'__init__'
p50
S"<method-wrapper '__init__' of exceptions.TypeError object>"
p51
sS'__new__'
p52
S'<built-in method __new__ of type object>'
p53
ssS'evalue'
p54
S"__init__() got an unexpected keyword argument 'Label'"
p55
sS'request'
p56
cgluon.html
XML_unpickle
p57
(S'sZX\x00\x00<div><table><tr><td style="font-weight:bold;vertical-align:top;">ajax</td><td style="vertical-align:top;">:</td><td><div>False</div></td></tr><tr><td style="font-weight:bold;vertical-align:top;">application</td><td style="vertical-align:top;">:</td><td><div>Cabshare</div></td></tr><tr><td style="font-weight:bold;vertical-align:top;">args</td><td style="vertical-align:top;">:</td><td><div><table></table></div></td></tr><tr><td style="font-weight:bold;vertical-align:top;">cid</td><td style="vertical-align:top;">:</td><td><div>None</div></td></tr><tr><td style="font-weight:bold;vertical-align:top;">client</td><td style="vertical-align:top;">:</td><td><div>127.0.0.1</div></td></tr><tr><td style="font-weight:bold;vertical-align:top;">controller</td><td style="vertical-align:top;">:</td><td><div>default</div></td></tr><tr><td style="font-weight:bold;vertical-align:top;">cookies</td><td style="vertical-align:top;">:</td><td><div><table><tr><td style="font-weight:bold;vertical-align:top;">session_id_admin</td><td style="vertical-align:top;">:</td><td><div>127.0.0.1-4621eee7-c439-4f21-abe6-ef09bd963abb<table><tr><td style="font-weight:bold;vertical-align:top;">comment</td><td style="vertical-align:top;">:</td><td><div></div></td></tr><tr><td style="font-weight:bold;vertical-align:top;">domain</td><td style="vertical-align:top;">:</td><td><div></div></td></tr><tr><td style="font-weight:bold;vertical-align:top;">expires</td><td style="vertical-align:top;">:</td><td><div></div></td></tr><tr><td style="font-weight:bold;vertical-align:top;">httponly</td><td style="vertical-align:top;">:</td><td><div></div></td></tr><tr><td style="font-weight:bold;vertical-align:top;">max-age</td><td style="vertical-align:top;">:</td><td><div></div></td></tr><tr><td style="font-weight:bold;vertical-align:top;">path</td><td style="vertical-align:top;">:</td><td><div></div></td></tr><tr><td style="font-weight:bold;vertical-align:top;">secure</td><td style="vertical-align:top;">:</td><td><div></div></td></tr><tr><td style="font-weight:bold;vertical-align:top;">version</td><td style="vertical-align:top;">:</td><td><div></div></td></tr></table></div></td></tr><tr><td style="font-weight:bold;vertical-align:top;">session_id_cabshare</td><td style="vertical-align:top;">:</td><td><div>127.0.0.1-7d24b34c-a07c-4c76-b535-64b4e9210df1<table><tr><td style="font-weight:bold;vertical-align:top;">comment</td><td style="vertical-align:top;">:</td><td><div></div></td></tr><tr><td style="font-weight:bold;vertical-align:top;">domain</td><td style="vertical-align:top;">:</td><td><div></div></td></tr><tr><td style="font-weight:bold;vertical-align:top;">expires</td><td style="vertical-align:top;">:</td><td><div></div></td></tr><tr><td style="font-weight:bold;vertical-align:top;">httponly</td><td style="vertical-align:top;">:</td><td><div></div></td></tr><tr><td style="font-weight:bold;vertical-align:top;">max-age</td><td style="vertical-align:top;">:</td><td><div></div></td></tr><tr><td style="font-weight:bold;vertical-align:top;">path</td><td style="vertical-align:top;">:</td><td><div></div></td></tr><tr><td style="font-weight:bold;vertical-align:top;">secure</td><td style="vertical-align:top;">:</td><td><div></div></td></tr><tr><td style="font-weight:bold;vertical-align:top;">version</td><td style="vertical-align:top;">:</td><td><div></div></td></tr></table></div></td></tr></table></div></td></tr><tr><td style="font-weight:bold;vertical-align:top;">env</td><td style="vertical-align:top;">:</td><td><div><table><tr><td style="font-weight:bold;vertical-align:top;">HTTP_ACCEPT</td><td style="vertical-align:top;">:</td><td><div>text/html,application/xhtml+xml,application/xml;q=0.9,*/*;q=0.8</div></td></tr><tr><td style="font-weight:bold;vertical-align:top;">HTTP_ACCEPT_ENCODING</td><td style="vertical-align:top;">:</td><td><div>gzip, deflate</div></td></tr><tr><td style="font-weight:bold;vertical-align:top;">HTTP_ACCEPT_LANGUAGE</td><td style="vertical-align:top;">:</td><td><div>en-US,en;q=0.5</div></td></tr><tr><td style="font-weight:bold;vertical-align:top;">HTTP_CACHE_CONTROL</td><td style="vertical-align:top;">:</td><td><div>max-age=0</div></td></tr><tr><td style="font-weight:bold;vertical-align:top;">HTTP_CONNECTION</td><td style="vertical-align:top;">:</td><td><div>keep-alive</div></td></tr><tr><td style="font-weight:bold;vertical-align:top;">HTTP_COOKIE</td><td style="vertical-align:top;">:</td><td><div>session_id_cabshare=127.0.0.1-7d24b34c-a07c-4c76-b535-64b4e9210df1; session_id_admin=127.0.0.1-4621eee7-c439-4f21-abe6-ef09bd963abb</div></td></tr><tr><td style="font-weight:bold;vertical-align:top;">HTTP_HOST</td><td style="vertical-align:top;">:</td><td><div>localhost:8000</div></td></tr><tr><td style="font-weight:bold;vertical-align:top;">HTTP_REFERER</td><td style="vertical-align:top;">:</td><td><div>http://localhost:8000/Cabshare/default/user/login?_next=/Cabshare/default/index</div></td></tr><tr><td style="font-weight:bold;vertical-align:top;">HTTP_USER_AGENT</td><td style="vertical-align:top;">:</td><td><div>Mozilla/5.0 (X11; Fedora; Linux x86_64; rv:41.0) Gecko/20100101 Firefox/41.0</div></td></tr><tr><td style="font-weight:bold;vertical-align:top;">PATH_INFO</td><td style="vertical-align:top;">:</td><td><div>/Cabshare/default/index</div></td></tr><tr><td style="font-weight:bold;vertical-align:top;">QUERY_STRING</td><td style="vertical-align:top;">:</td><td><div></div></td></tr><tr><td style="font-weight:bold;vertical-align:top;">REMOTE_ADDR</td><td style="vertical-align:top;">:</td><td><div>127.0.0.1</div></td></tr><tr><td style="font-weight:bold;vertical-align:top;">REMOTE_PORT</td><td style="vertical-align:top;">:</td><td><div>39054</div></td></tr><tr><td style="font-weight:bold;vertical-align:top;">REQUEST_METHOD</td><td style="vertical-align:top;">:</td><td><div>GET</div></td></tr><tr><td style="font-weight:bold;vertical-align:top;">SCRIPT_NAME</td><td style="vertical-align:top;">:</td><td><div></div></td></tr><tr><td style="font-weight:bold;vertical-align:top;">SERVER_NAME</td><td style="vertical-align:top;">:</td><td><div>chaitanya-pc</div></td></tr><tr><td style="font-weight:bold;vertical-align:top;">SERVER_PORT</td><td style="vertical-align:top;">:</td><td><div>8000</div></td></tr><tr><td style="font-weight:bold;vertical-align:top;">SERVER_PROTOCOL</td><td style="vertical-align:top;">:</td><td><div>HTTP/1.1</div></td></tr><tr><td style="font-weight:bold;vertical-align:top;">SERVER_SOFTWARE</td><td style="vertical-align:top;">:</td><td><div>Rocket 1.2.6</div></td></tr><tr><td style="font-weight:bold;vertical-align:top;">app_folders</td><td style="vertical-align:top;">:</td><td><div>set([&#x27;/home/krishna/ACADEMICS/SEM(1-2)/ASGN AND QUESTIONS/ITWS-2/PROJECT/V3/PROJECT/web2py/applications/Cabshare/&#x27;, &#x27;/home/krishna/ACADEMICS/SEM(1-2)/ASGN AND QUESTIONS/ITWS-2/PROJECT/V3/PROJECT/web2py/applications/admin/&#x27;])</div></td></tr><tr><td style="font-weight:bold;vertical-align:top;">applications_parent</td><td style="vertical-align:top;">:</td><td><div>/home/krishna/ACADEMICS/SEM(1-2)/ASGN AND QUESTIONS/ITWS-2/PROJECT/V3/PROJECT/web2py</div></td></tr><tr><td style="font-weight:bold;vertical-align:top;">cmd_args</td><td style="vertical-align:top;">:</td><td><div><table></table></div></td></tr><tr><td style="font-weight:bold;vertical-align:top;">cmd_options</td><td style="vertical-align:top;">:</td><td><div>&lt;Values at 0x7fd4705143f8: {&#x27;verbose&#x27;: False, &#x27;ip&#x27;: &#x27;127.0.0.1&#x27;, &#x27;debuglevel&#x27;: 30, &#x27;with_scheduler&#x27;: False, &#x27;shutdown_timeout&#x27;: 5, &#x27;taskbar&#x27;: False, &#x27;with_coverage&#x27;: False, &#x27;pid_filename&#x27;: &#x27;httpserver.pid&#x27;, &#x27;maxthreads&#x27;: None, &#x27;softcron&#x27;: False, &#x27;server_name&#x27;: &#x27;chaitanya-pc&#x27;, &#x27;bpython&#x27;: False, &#x27;nogui&#x27;: False, &#x27;port&#x27;: 8000, &#x27;print_errors&#x27;: False, &#x27;extcron&#x27;: False, &#x27;runcron&#x27;: False, &#x27;run_system_tests&#x27;: False, &#x27;test&#x27;: None, &#x27;folder&#x27;: &#x27;/home/krishna/ACADEMICS/SEM(1-2)/ASGN AND QUESTIONS/ITWS-2/PROJECT/V3/PROJECT/web2py&#x27;, &#x27;config&#x27;: &#x27;&#x27;, &#x27;minthreads&#x27;: None, &#x27;shell&#x27;: None, &#x27;run&#x27;: &#x27;&#x27;, &#x27;log_filename&#x27;: &#x27;httpserver.log&#x27;, &#x27;profiler_dir&#x27;: None, &#x27;args&#x27;: [&#x27;&#x27;], &#x27;socket_timeout&#x27;: 5, &#x27;ssl_ca_certificate&#x27;: None, &#x27;scheduler&#x27;: None, &#x27;interfaces&#x27;: None, &#x27;ssl_private_key&#x27;: &#x27;&#x27;, &#x27;gae&#x27;: None, &#x27;password&#x27;: &#x27;******&#x27;, &#x27;request_queue_size&#x27;: 5, &#x27;ssl_certificate&#x27;: &#x27;&#x27;, &#x27;cronjob&#x27;: False, &#x27;numthreads&#x27;: None, &#x27;quiet&#x27;: False, &#x27;import_models&#x27;: False, &#x27;timeout&#x27;: 10, &#x27;plain&#x27;: False, &#x27;nobanner&#x27;: False}&gt;</div></td></tr><tr><td style="font-weight:bold;vertical-align:top;">db_sessions</td><td style="vertical-align:top;">:</td><td><div>set([])</div></td></tr><tr><td style="font-weight:bold;vertical-align:top;">debugging</td><td style="vertical-align:top;">:</td><td><div>False</div></td></tr><tr><td style="font-weight:bold;vertical-align:top;">gluon_parent</td><td style="vertical-align:top;">:</td><td><div>/home/krishna/ACADEMICS/SEM(1-2)/ASGN AND QUESTIONS/ITWS-2/PROJECT/V3/PROJECT/web2py</div></td></tr><tr><td style="font-weight:bold;vertical-align:top;">http_accept</td><td style="vertical-align:top;">:</td><td><div>text/html,application/xhtml+xml,application/xml;q=0.9,*/*;q=0.8</div></td></tr><tr><td style="font-weight:bold;vertical-align:top;">http_accept_encoding</td><td style="vertical-align:top;">:</td><td><div>gzip, deflate</div></td></tr><tr><td style="font-weight:bold;vertical-align:top;">http_accept_language</td><td style="vertical-align:top;">:</td><td><div>en-US,en;q=0.5</div></td></tr><tr><td style="font-weight:bold;vertical-align:top;">http_cache_control</td><td style="vertical-align:top;">:</td><td><div>max-age=0</div></td></tr><tr><td style="font-weight:bold;vertical-align:top;">http_connection</td><td style="vertical-align:top;">:</td><td><div>keep-alive</div></td></tr><tr><td style="font-weight:bold;vertical-align:top;">http_cookie</td><td style="vertical-align:top;">:</td><td><div>session_id_cabshare=127.0.0.1-7d24b34c-a07c-4c76-b535-64b4e9210df1; session_id_admin=127.0.0.1-4621eee7-c439-4f21-abe6-ef09bd963abb</div></td></tr><tr><td style="font-weight:bold;vertical-align:top;">http_host</td><td style="vertical-align:top;">:</td><td><div>localhost:8000</div></td></tr><tr><td style="font-weight:bold;vertical-align:top;">http_referer</td><td style="vertical-align:top;">:</td><td><div>http://localhost:8000/Cabshare/default/user/login?_next=/Cabshare/default/index</div></td></tr><tr><td style="font-weight:bold;vertical-align:top;">http_user_agent</td><td style="vertical-align:top;">:</td><td><div>Mozilla/5.0 (X11; Fedora; Linux x86_64; rv:41.0) Gecko/20100101 Firefox/41.0</div></td></tr><tr><td style="font-weight:bold;vertical-align:top;">is_jython</td><td style="vertical-align:top;">:</td><td><div>False</div></td></tr><tr><td style="font-weight:bold;vertical-align:top;">is_pypy</td><td style="vertical-align:top;">:</td><td><div>False</div></td></tr><tr><td style="font-weight:bold;vertical-align:top;">is_source</td><td style="vertical-align:top;">:</td><td><div>True</div></td></tr><tr><td style="font-weight:bold;vertical-align:top;">local_hosts</td><td style="vertical-align:top;">:</td><td><div><table><tr><td><div>192.168.124.1</div></td></tr><tr><td><div>::1</div></td></tr><tr><td><div>chaitanya-pc</div></td></tr><tr><td><div>::ffff:127.0.0.1</div></td></tr><tr><td><div>127.0.0.1</div></td></tr></table></div></td></tr><tr><td style="font-weight:bold;vertical-align:top;">path_info</td><td style="vertical-align:top;">:</td><td><div>/Cabshare/default/index</div></td></tr><tr><td style="font-weight:bold;vertical-align:top;">query_string</td><td style="vertical-align:top;">:</td><td><div></div></td></tr><tr><td style="font-weight:bold;vertical-align:top;">remote_addr</td><td style="vertical-align:top;">:</td><td><div>127.0.0.1</div></td></tr><tr><td style="font-weight:bold;vertical-align:top;">remote_port</td><td style="vertical-align:top;">:</td><td><div>39054</div></td></tr><tr><td style="font-weight:bold;vertical-align:top;">request_method</td><td style="vertical-align:top;">:</td><td><div>GET</div></td></tr><tr><td style="font-weight:bold;vertical-align:top;">request_uri</td><td style="vertical-align:top;">:</td><td><div>/Cabshare/default/index</div></td></tr><tr><td style="font-weight:bold;vertical-align:top;">script_name</td><td style="vertical-align:top;">:</td><td><div></div></td></tr><tr><td style="font-weight:bold;vertical-align:top;">server_name</td><td style="vertical-align:top;">:</td><td><div>chaitanya-pc</div></td></tr><tr><td style="font-weight:bold;vertical-align:top;">server_port</td><td style="vertical-align:top;">:</td><td><div>8000</div></td></tr><tr><td style="font-weight:bold;vertical-align:top;">server_protocol</td><td style="vertical-align:top;">:</td><td><div>HTTP/1.1</div></td></tr><tr><td style="font-weight:bold;vertical-align:top;">server_software</td><td style="vertical-align:top;">:</td><td><div>Rocket 1.2.6</div></td></tr><tr><td style="font-weight:bold;vertical-align:top;">web2py_path</td><td style="vertical-align:top;">:</td><td><div>/home/krishna/ACADEMICS/SEM(1-2)/ASGN AND QUESTIONS/ITWS-2/PROJECT/V3/PROJECT/web2py</div></td></tr><tr><td style="font-weight:bold;vertical-align:top;">web2py_version</td><td style="vertical-align:top;">:</td><td><div>2.14.3-stable+timestamp.2016.03.26.23.02.02</div></td></tr><tr><td style="font-weight:bold;vertical-align:top;">wsgi.errors</td><td style="vertical-align:top;">:</td><td><div>&lt;open file &#x27;&lt;stderr&gt;&#x27;, mode &#x27;w&#x27; at 0x7fd47f3321e0&gt;</div></td></tr><tr><td style="font-weight:bold;vertical-align:top;">wsgi.file_wrapper</td><td style="vertical-align:top;">:</td><td><div>&lt;class wsgiref.util.FileWrapper at 0x7fd47053f328&gt;</div></td></tr><tr><td style="font-weight:bold;vertical-align:top;">wsgi.input</td><td style="vertical-align:top;">:</td><td><div>&lt;socket._fileobject object at 0x7fd46c244e50&gt;</div></td></tr><tr><td style="font-weight:bold;vertical-align:top;">wsgi.multiprocess</td><td style="vertical-align:top;">:</td><td><div>False</div></td></tr><tr><td style="font-weight:bold;vertical-align:top;">wsgi.multithread</td><td style="vertical-align:top;">:</td><td><div>True</div></td></tr><tr><td style="font-weight:bold;vertical-align:top;">wsgi.run_once</td><td style="vertical-align:top;">:</td><td><div>False</div></td></tr><tr><td style="font-weight:bold;vertical-align:top;">wsgi.url_scheme</td><td style="vertical-align:top;">:</td><td><div>http</div></td></tr><tr><td style="font-weight:bold;vertical-align:top;">wsgi.version</td><td style="vertical-align:top;">:</td><td><div><table><tr><td><div>1</div></td></tr><tr><td><div>0</div></td></tr></table></div></td></tr><tr><td style="font-weight:bold;vertical-align:top;">wsgi_errors</td><td style="vertical-align:top;">:</td><td><div>&lt;open file &#x27;&lt;stderr&gt;&#x27;, mode &#x27;w&#x27; at 0x7fd47f3321e0&gt;</div></td></tr><tr><td style="font-weight:bold;vertical-align:top;">wsgi_file_wrapper</td><td style="vertical-align:top;">:</td><td><div>&lt;class wsgiref.util.FileWrapper at 0x7fd47053f328&gt;</div></td></tr><tr><td style="font-weight:bold;vertical-align:top;">wsgi_input</td><td style="vertical-align:top;">:</td><td><div>&lt;socket._fileobject object at 0x7fd46c244e50&gt;</div></td></tr><tr><td style="font-weight:bold;vertical-align:top;">wsgi_multiprocess</td><td style="vertical-align:top;">:</td><td><div>False</div></td></tr><tr><td style="font-weight:bold;vertical-align:top;">wsgi_multithread</td><td style="vertical-align:top;">:</td><td><div>True</div></td></tr><tr><td style="font-weight:bold;vertical-align:top;">wsgi_run_once</td><td style="vertical-align:top;">:</td><td><div>False</div></td></tr><tr><td style="font-weight:bold;vertical-align:top;">wsgi_url_scheme</td><td style="vertical-align:top;">:</td><td><div>http</div></td></tr><tr><td style="font-weight:bold;vertical-align:top;">wsgi_version</td><td style="vertical-align:top;">:</td><td><div><table><tr><td><div>1</div></td></tr><tr><td><div>0</div></td></tr></table></div></td></tr></table></div></td></tr><tr><td style="font-weight:bold;vertical-align:top;">extension</td><td style="vertical-align:top;">:</td><td><div>html</div></td></tr><tr><td style="font-weight:bold;vertical-align:top;">folder</td><td style="vertical-align:top;">:</td><td><div>/home/krishna/ACADEMICS/SEM(1-2)/ASGN AND QUESTIONS/ITWS-2/PROJECT/V3/PROJECT/web2py/applications/Cabshare/</div></td></tr><tr><td style="font-weight:bold;vertical-align:top;">function</td><td style="vertical-align:top;">:</td><td><div>index</div></td></tr><tr><td style="font-weight:bold;vertical-align:top;">global_settings</td><td style="vertical-align:top;">:</td><td><div><table><tr><td style="font-weight:bold;vertical-align:top;">app_folders</td><td style="vertical-align:top;">:</td><td><div>set([&#x27;/home/krishna/ACADEMICS/SEM(1-2)/ASGN AND QUESTIONS/ITWS-2/PROJECT/V3/PROJECT/web2py/applications/Cabshare/&#x27;, &#x27;/home/krishna/ACADEMICS/SEM(1-2)/ASGN AND QUESTIONS/ITWS-2/PROJECT/V3/PROJECT/web2py/applications/admin/&#x27;])</div></td></tr><tr><td style="font-weight:bold;vertical-align:top;">applications_parent</td><td style="vertical-align:top;">:</td><td><div>/home/krishna/ACADEMICS/SEM(1-2)/ASGN AND QUESTIONS/ITWS-2/PROJECT/V3/PROJECT/web2py</div></td></tr><tr><td style="font-weight:bold;vertical-align:top;">cmd_args</td><td style="vertical-align:top;">:</td><td><div><table></table></div></td></tr><tr><td style="font-weight:bold;vertical-align:top;">cmd_options</td><td style="vertical-align:top;">:</td><td><div>&lt;Values at 0x7fd4705143f8: {&#x27;verbose&#x27;: False, &#x27;ip&#x27;: &#x27;127.0.0.1&#x27;, &#x27;debuglevel&#x27;: 30, &#x27;with_scheduler&#x27;: False, &#x27;shutdown_timeout&#x27;: 5, &#x27;taskbar&#x27;: False, &#x27;with_coverage&#x27;: False, &#x27;pid_filename&#x27;: &#x27;httpserver.pid&#x27;, &#x27;maxthreads&#x27;: None, &#x27;softcron&#x27;: False, &#x27;server_name&#x27;: &#x27;chaitanya-pc&#x27;, &#x27;bpython&#x27;: False, &#x27;nogui&#x27;: False, &#x27;port&#x27;: 8000, &#x27;print_errors&#x27;: False, &#x27;extcron&#x27;: False, &#x27;runcron&#x27;: False, &#x27;run_system_tests&#x27;: False, &#x27;test&#x27;: None, &#x27;folder&#x27;: &#x27;/home/krishna/ACADEMICS/SEM(1-2)/ASGN AND QUESTIONS/ITWS-2/PROJECT/V3/PROJECT/web2py&#x27;, &#x27;config&#x27;: &#x27;&#x27;, &#x27;minthreads&#x27;: None, &#x27;shell&#x27;: None, &#x27;run&#x27;: &#x27;&#x27;, &#x27;log_filename&#x27;: &#x27;httpserver.log&#x27;, &#x27;profiler_dir&#x27;: None, &#x27;args&#x27;: [&#x27;&#x27;], &#x27;socket_timeout&#x27;: 5, &#x27;ssl_ca_certificate&#x27;: None, &#x27;scheduler&#x27;: None, &#x27;interfaces&#x27;: None, &#x27;ssl_private_key&#x27;: &#x27;&#x27;, &#x27;gae&#x27;: None, &#x27;password&#x27;: &#x27;******&#x27;, &#x27;request_queue_size&#x27;: 5, &#x27;ssl_certificate&#x27;: &#x27;&#x27;, &#x27;cronjob&#x27;: False, &#x27;numthreads&#x27;: None, &#x27;quiet&#x27;: False, &#x27;import_models&#x27;: False, &#x27;timeout&#x27;: 10, &#x27;plain&#x27;: False, &#x27;nobanner&#x27;: False}&gt;</div></td></tr><tr><td style="font-weight:bold;vertical-align:top;">db_sessions</td><td style="vertical-align:top;">:</td><td><div>set([])</div></td></tr><tr><td style="font-weight:bold;vertical-align:top;">debugging</td><td style="vertical-align:top;">:</td><td><div>False</div></td></tr><tr><td style="font-weight:bold;vertical-align:top;">gluon_parent</td><td style="vertical-align:top;">:</td><td><div>/home/krishna/ACADEMICS/SEM(1-2)/ASGN AND QUESTIONS/ITWS-2/PROJECT/V3/PROJECT/web2py</div></td></tr><tr><td style="font-weight:bold;vertical-align:top;">is_jython</td><td style="vertical-align:top;">:</td><td><div>False</div></td></tr><tr><td style="font-weight:bold;vertical-align:top;">is_pypy</td><td style="vertical-align:top;">:</td><td><div>False</div></td></tr><tr><td style="font-weight:bold;vertical-align:top;">is_source</td><td style="vertical-align:top;">:</td><td><div>True</div></td></tr><tr><td style="font-weight:bold;vertical-align:top;">local_hosts</td><td style="vertical-align:top;">:</td><td><div><table><tr><td><div>192.168.124.1</div></td></tr><tr><td><div>::1</div></td></tr><tr><td><div>chaitanya-pc</div></td></tr><tr><td><div>::ffff:127.0.0.1</div></td></tr><tr><td><div>127.0.0.1</div></td></tr></table></div></td></tr><tr><td style="font-weight:bold;vertical-align:top;">web2py_version</td><td style="vertical-align:top;">:</td><td><div>2.14.3-stable+timestamp.2016.03.26.23.02.02</div></td></tr></table></div></td></tr><tr><td style="font-weight:bold;vertical-align:top;">is_https</td><td style="vertical-align:top;">:</td><td><div>False</div></td></tr><tr><td style="font-weight:bold;vertical-align:top;">is_local</td><td style="vertical-align:top;">:</td><td><div>True</div></td></tr><tr><td style="font-weight:bold;vertical-align:top;">is_restful</td><td style="vertical-align:top;">:</td><td><div>False</div></td></tr><tr><td style="font-weight:bold;vertical-align:top;">is_scheduler</td><td style="vertical-align:top;">:</td><td><div>False</div></td></tr><tr><td style="font-weight:bold;vertical-align:top;">is_shell</td><td style="vertical-align:top;">:</td><td><div>False</div></td></tr><tr><td style="font-weight:bold;vertical-align:top;">now</td><td style="vertical-align:top;">:</td><td><div>datetime.datetime(2016, 4, 10, 11, 49, 33, 979172)</div></td></tr><tr><td style="font-weight:bold;vertical-align:top;">raw_args</td><td style="vertical-align:top;">:</td><td><div></div></td></tr><tr><td style="font-weight:bold;vertical-align:top;">raw_extension</td><td style="vertical-align:top;">:</td><td><div>None</div></td></tr><tr><td style="font-weight:bold;vertical-align:top;">url</td><td style="vertical-align:top;">:</td><td><div>/Cabshare/default/index</div></td></tr><tr><td style="font-weight:bold;vertical-align:top;">utcnow</td><td style="vertical-align:top;">:</td><td><div>datetime.datetime(2016, 4, 10, 15, 49, 33, 979216)</div></td></tr><tr><td style="font-weight:bold;vertical-align:top;">wsgi</td><td style="vertical-align:top;">:</td><td><div>&lt;gluon.main.LazyWSGI object at 0x7fd43b60d8d0&gt;</div></td></tr></table></div>'
tRp58
sS'frames'
p59
(lp60
(dp61
S'file'
p62
S'/home/krishna/ACADEMICS/SEM(1-2)/ASGN AND QUESTIONS/ITWS-2/PROJECT/V3/PROJECT/web2py/gluon/restricted.py'
p63
sS'dump'
p64
(dp65
S'environment'
p66
S"{'A': <class 'gluon.html.A'>, 'ANY_OF': <class 'gluon.validators.ANY_OF'>, 'ASSIGNJS': <function ASSIGNJS>, 'AppConfig': <function AppConfig>, 'Auth': <class 'gluon.tools.Auth'>, 'B': <class 'gluon.html.B'>, 'BEAUTIFY': <class 'gluon.html.BEAUTIFY'>, 'BODY': <class 'gluon.html.BODY'>, 'BR': <class 'gluon.html.BR'>, 'BUTTON': <class 'gluon.html.BUTTON'>, ...}"
p67
sS'ccode'
p68
S'<code object <module> at 0x7fd43b4cdc30, file "/...2py/applications/Cabshare/models/db.py", line 13>'
p69
ssS'lnum'
p70
I227
sS'lines'
p71
(dp72
I224
S'            ccode = code'
p73
sI225
S'        else:'
p74
sI226
S'            ccode = compile2(code, layer)'
p75
sI227
S'        exec ccode in environment'
p76
sI228
S'    except HTTP:'
p77
sI229
S'        raise'
p78
sI230
S'    except RestrictedError:'
p79
sI231
S'        # do not encapsulate (obfuscate) the original RestrictedError'
p80
sI222
S'    try:'
p81
sI223
S'        if isinstance(code, types.CodeType):'
p82
ssS'call'
p83
S"(code='# -*- coding: utf-8 -*-\\n\\n#######################...         )\\n### the table of autocomlete is done.\\n', environment={'A': <class 'gluon.html.A'>, 'ANY_OF': <class 'gluon.validators.ANY_OF'>, 'ASSIGNJS': <function ASSIGNJS>, 'AppConfig': <function AppConfig>, 'Auth': <class 'gluon.tools.Auth'>, 'B': <class 'gluon.html.B'>, 'BEAUTIFY': <class 'gluon.html.BEAUTIFY'>, 'BODY': <class 'gluon.html.BODY'>, 'BR': <class 'gluon.html.BR'>, 'BUTTON': <class 'gluon.html.BUTTON'>, ...}, layer='/home/krishna/ACADEMICS/SEM(1-2)/ASGN AND QUESTI...PROJECT/web2py/applications/Cabshare/models/db.py')"
p84
sS'func'
p85
S'restricted'
p86
sa(dp87
g62
S'/home/krishna/ACADEMICS/SEM(1-2)/ASGN AND QUESTIONS/ITWS-2/PROJECT/V3/PROJECT/web2py/applications/Cabshare/models/db.py'
p88
sg64
(dp89
S'builtinFalse'
p90
S'False'
p91
sS'builtinTrue'
p92
S'True'
p93
sS'readable'
p94
S'undefined'
p95
sS'Label'
p96
g95
sS'writable'
p97
g95
sS'Field'
p98
S"<class 'pydal.objects.Field'>"
p99
ssg70
I156
sg71
(dp100
I160
S"               Field('rating',requires=IS_IN_SET(['1','2','3','4','5'])),"
p101
sI151
S''
sI152
S'###The votes table.'
p102
sI153
S''
sI154
S"db.define_table('voting',"
p103
sI155
S"               Field('voterid','integer',readable=False,writable=False),"
p104
sI156
S'               Field(\'candid\',\'integer\',readable=True,writable=False,Label="Rate the user"),'
p105
sI157
S"               Field('tripid','integer',readable=False,writable=False),"
p106
sI158
S"               Field('time_of','time',readable=False,writable=False),"
p107
sI159
S"               Field('date_of','date',readable=False,writable=False),"
p108
ssg83
S'()'
p109
sg85
S'<module>'
p110
sasS'pyver'
p111
S'Python 2.7.10: /usr/bin/python (prefix: /usr)'
p112
sS'session'
p113
g57
(S's\xfd\x0e\x00\x00<div><table><tr><td style="font-weight:bold;vertical-align:top;">auth</td><td style="vertical-align:top;">:</td><td><div><table><tr><td style="font-weight:bold;vertical-align:top;">expiration</td><td style="vertical-align:top;">:</td><td><div>3600</div></td></tr><tr><td style="font-weight:bold;vertical-align:top;">hmac_key</td><td style="vertical-align:top;">:</td><td><div>11b53dd5-acaf-475a-a16d-2846f18c909f</div></td></tr><tr><td style="font-weight:bold;vertical-align:top;">last_visit</td><td style="vertical-align:top;">:</td><td><div>datetime.datetime(2016, 4, 10, 11, 49, 33, 979172)</div></td></tr><tr><td style="font-weight:bold;vertical-align:top;">remember_me</td><td style="vertical-align:top;">:</td><td><div>False</div></td></tr><tr><td style="font-weight:bold;vertical-align:top;">user</td><td style="vertical-align:top;">:</td><td><div><table><tr><td style="font-weight:bold;vertical-align:top;">City</td><td style="vertical-align:top;">:</td><td><div>Visakhapatnam</div></td></tr><tr><td style="font-weight:bold;vertical-align:top;">Country</td><td style="vertical-align:top;">:</td><td><div>India</div></td></tr><tr><td style="font-weight:bold;vertical-align:top;">Gender</td><td style="vertical-align:top;">:</td><td><div>MALE</div></td></tr><tr><td style="font-weight:bold;vertical-align:top;">Pp</td><td style="vertical-align:top;">:</td><td><div>auth_user.Pp.9b4521f4ab44c461.696e6465782e6a706567.jpeg</div></td></tr><tr><td style="font-weight:bold;vertical-align:top;">depend_rate</td><td style="vertical-align:top;">:</td><td><div>-1L</div></td></tr><tr><td style="font-weight:bold;vertical-align:top;">dob</td><td style="vertical-align:top;">:</td><td><div>datetime.date(1998, 3, 5)</div></td></tr><tr><td style="font-weight:bold;vertical-align:top;">email</td><td style="vertical-align:top;">:</td><td><div>chaitanya5398@gmail.com</div></td></tr><tr><td style="font-weight:bold;vertical-align:top;">first_name</td><td style="vertical-align:top;">:</td><td><div>krishna chaitanya</div></td></tr><tr><td style="font-weight:bold;vertical-align:top;">id</td><td style="vertical-align:top;">:</td><td><div>2L</div></td></tr><tr><td style="font-weight:bold;vertical-align:top;">last_name</td><td style="vertical-align:top;">:</td><td><div>Pappu</div></td></tr><tr><td style="font-weight:bold;vertical-align:top;">mail_nt</td><td style="vertical-align:top;">:</td><td><div>Yes</div></td></tr><tr><td style="font-weight:bold;vertical-align:top;">phone_no</td><td style="vertical-align:top;">:</td><td><div>9492186728L</div></td></tr><tr><td style="font-weight:bold;vertical-align:top;">registration_id</td><td style="vertical-align:top;">:</td><td><div></div></td></tr><tr><td style="font-weight:bold;vertical-align:top;">registration_key</td><td style="vertical-align:top;">:</td><td><div></div></td></tr><tr><td style="font-weight:bold;vertical-align:top;">reset_password_key</td><td style="vertical-align:top;">:</td><td><div></div></td></tr><tr><td style="font-weight:bold;vertical-align:top;">trips_no</td><td style="vertical-align:top;">:</td><td><div>1L</div></td></tr><tr><td style="font-weight:bold;vertical-align:top;">username</td><td style="vertical-align:top;">:</td><td><div>krishna.pappu</div></td></tr><tr><td style="font-weight:bold;vertical-align:top;">votes_no</td><td style="vertical-align:top;">:</td><td><div>0L</div></td></tr></table></div></td></tr><tr><td style="font-weight:bold;vertical-align:top;">user_groups</td><td style="vertical-align:top;">:</td><td><div><table><tr><td style="font-weight:bold;vertical-align:top;">2</td><td style="vertical-align:top;">:</td><td><div>user_2</div></td></tr></table></div></td></tr></table></div></td></tr><tr><td style="font-weight:bold;vertical-align:top;">flash</td><td style="vertical-align:top;">:</td><td><div>None</div></td></tr></table></div>'
tRp114
sS'etype'
p115
S"<type 'exceptions.TypeError'>"
p116
sS'date'
p117
S'Sun Apr 10 11:49:34 2016'
p118
sS'response'
p119
g57
(S's\xec\x17\x00\x00<div><table><tr><td style="font-weight:bold;vertical-align:top;">body</td><td style="vertical-align:top;">:</td><td><div>&lt;cStringIO.StringO object at 0x7fd45c46c148&gt;</div></td></tr><tr><td style="font-weight:bold;vertical-align:top;">cookies</td><td style="vertical-align:top;">:</td><td><div><table><tr><td style="font-weight:bold;vertical-align:top;">session_id_cabshare</td><td style="vertical-align:top;">:</td><td><div>127.0.0.1-7d24b34c-a07c-4c76-b535-64b4e9210df1<table><tr><td style="font-weight:bold;vertical-align:top;">comment</td><td style="vertical-align:top;">:</td><td><div></div></td></tr><tr><td style="font-weight:bold;vertical-align:top;">domain</td><td style="vertical-align:top;">:</td><td><div></div></td></tr><tr><td style="font-weight:bold;vertical-align:top;">expires</td><td style="vertical-align:top;">:</td><td><div></div></td></tr><tr><td style="font-weight:bold;vertical-align:top;">httponly</td><td style="vertical-align:top;">:</td><td><div></div></td></tr><tr><td style="font-weight:bold;vertical-align:top;">max-age</td><td style="vertical-align:top;">:</td><td><div></div></td></tr><tr><td style="font-weight:bold;vertical-align:top;">path</td><td style="vertical-align:top;">:</td><td><div>/</div></td></tr><tr><td style="font-weight:bold;vertical-align:top;">secure</td><td style="vertical-align:top;">:</td><td><div></div></td></tr><tr><td style="font-weight:bold;vertical-align:top;">version</td><td style="vertical-align:top;">:</td><td><div></div></td></tr></table></div></td></tr></table></div></td></tr><tr><td style="font-weight:bold;vertical-align:top;">delimiters</td><td style="vertical-align:top;">:</td><td><div><table><tr><td><div>{{</div></td></tr><tr><td><div>}}</div></td></tr></table></div></td></tr><tr><td style="font-weight:bold;vertical-align:top;">files</td><td style="vertical-align:top;">:</td><td><div><table></table></div></td></tr><tr><td style="font-weight:bold;vertical-align:top;">flash</td><td style="vertical-align:top;">:</td><td><div></div></td></tr><tr><td style="font-weight:bold;vertical-align:top;">form_label_separator</td><td style="vertical-align:top;">:</td><td><div></div></td></tr><tr><td style="font-weight:bold;vertical-align:top;">formstyle</td><td style="vertical-align:top;">:</td><td><div>bootstrap3_inline</div></td></tr><tr><td style="font-weight:bold;vertical-align:top;">generic_patterns</td><td style="vertical-align:top;">:</td><td><div><table><tr><td><div>*</div></td></tr></table></div></td></tr><tr><td style="font-weight:bold;vertical-align:top;">headers</td><td style="vertical-align:top;">:</td><td><div><table><tr><td style="font-weight:bold;vertical-align:top;">X-Powered-By</td><td style="vertical-align:top;">:</td><td><div>web2py</div></td></tr></table></div></td></tr><tr><td style="font-weight:bold;vertical-align:top;">menu</td><td style="vertical-align:top;">:</td><td><div><table></table></div></td></tr><tr><td style="font-weight:bold;vertical-align:top;">meta</td><td style="vertical-align:top;">:</td><td><div><table></table></div></td></tr><tr><td style="font-weight:bold;vertical-align:top;">models_to_run</td><td style="vertical-align:top;">:</td><td><div><table><tr><td><div>^\\w+\\.py$</div></td></tr><tr><td><div>^default/\\w+\\.py$</div></td></tr><tr><td><div>^default/index/\\w+\\.py$</div></td></tr></table></div></td></tr><tr><td style="font-weight:bold;vertical-align:top;">postprocessing</td><td style="vertical-align:top;">:</td><td><div><table></table></div></td></tr><tr><td style="font-weight:bold;vertical-align:top;">session_client</td><td style="vertical-align:top;">:</td><td><div>127.0.0.1</div></td></tr><tr><td style="font-weight:bold;vertical-align:top;">session_cookie_compression_level</td><td style="vertical-align:top;">:</td><td><div>None</div></td></tr><tr><td style="font-weight:bold;vertical-align:top;">session_cookie_expires</td><td style="vertical-align:top;">:</td><td><div>None</div></td></tr><tr><td style="font-weight:bold;vertical-align:top;">session_data_name</td><td style="vertical-align:top;">:</td><td><div>session_data_cabshare</div></td></tr><tr><td style="font-weight:bold;vertical-align:top;">session_file</td><td style="vertical-align:top;">:</td><td><div>&lt;open file &#x27;/home/krishna/ACADEMICS/SEM(1-2)/ASGN AND QUESTIONS/ITWS-2/PROJECT/V3/PROJECT/web2py/applications/Cabshare/sessions/0f2/1b8/127.0.0.1-7d24b34c-a07c-4c76-b535-64b4e9210df1&#x27;, mode &#x27;rb+&#x27; at 0x7fd45c5e8a50&gt;</div></td></tr><tr><td style="font-weight:bold;vertical-align:top;">session_filename</td><td style="vertical-align:top;">:</td><td><div>/home/krishna/ACADEMICS/SEM(1-2)/ASGN AND QUESTIONS/ITWS-2/PROJECT/V3/PROJECT/web2py/applications/Cabshare/sessions/127.0.0.1-7d24b34c-a07c-4c76-b535-64b4e9210df1</div></td></tr><tr><td style="font-weight:bold;vertical-align:top;">session_hash</td><td style="vertical-align:top;">:</td><td><div>2fa2d7a2f05de128b4a6db33d823e7a0</div></td></tr><tr><td style="font-weight:bold;vertical-align:top;">session_id</td><td style="vertical-align:top;">:</td><td><div>127.0.0.1-7d24b34c-a07c-4c76-b535-64b4e9210df1</div></td></tr><tr><td style="font-weight:bold;vertical-align:top;">session_id_name</td><td style="vertical-align:top;">:</td><td><div>session_id_cabshare</div></td></tr><tr><td style="font-weight:bold;vertical-align:top;">session_locked</td><td style="vertical-align:top;">:</td><td><div>True</div></td></tr><tr><td style="font-weight:bold;vertical-align:top;">session_masterapp</td><td style="vertical-align:top;">:</td><td><div>Cabshare</div></td></tr><tr><td style="font-weight:bold;vertical-align:top;">session_new</td><td style="vertical-align:top;">:</td><td><div>False</div></td></tr><tr><td style="font-weight:bold;vertical-align:top;">session_storage_type</td><td style="vertical-align:top;">:</td><td><div>file</div></td></tr><tr><td style="font-weight:bold;vertical-align:top;">status</td><td style="vertical-align:top;">:</td><td><div>200</div></td></tr><tr><td style="font-weight:bold;vertical-align:top;">view</td><td style="vertical-align:top;">:</td><td><div>default/index.html</div></td></tr></table></div>'
tRp120
sS'locals'
p121
(dp122
S'Service'
p123
S"<class 'gluon.tools.Service'>"
p124
sS'OBJECT'
p125
S"<class 'gluon.html.OBJECT'>"
p126
sS'SQLDB'
p127
S"<class 'pydal.base.DAL'>"
p128
sg113
S"<Storage {'_auth_next': None, 'flash': None, 'au...gin]': ['309b706c-fb97-49bf-ad37-c0e7b07e4267']}>"
p129
sS'LINK'
p130
S"<class 'gluon.html.LINK'>"
p131
sS'BR'
p132
S"<class 'gluon.html.BR'>"
p133
sS'local_import'
p134
S'<function <lambda>>'
p135
sS'OPTGROUP'
p136
S"<class 'gluon.html.OPTGROUP'>"
p137
sS'LI'
p138
S"<class 'gluon.html.LI'>"
p139
sS'PRE'
p140
S"<class 'gluon.html.PRE'>"
p141
sS'IS_INT_IN_RANGE'
p142
S"<class 'gluon.validators.IS_INT_IN_RANGE'>"
p143
sS'IS_LOWER'
p144
S"<class 'gluon.validators.IS_LOWER'>"
p145
sS'IS_STRONG'
p146
S"<class 'gluon.validators.IS_STRONG'>"
p147
sS'cache'
p148
S'<gluon.cache.Cache object>'
p149
sS'IS_IN_DB'
p150
S"<class 'gluon.validators.IS_IN_DB'>"
p151
sS'TAG'
p152
S'<gluon.html.__TAG__ object>'
p153
sS'SQLField'
p154
S"<class 'pydal.objects.Field'>"
p155
sS'mail'
p156
S'<gluon.tools.Mail object>'
p157
sS'BODY'
p158
S"<class 'gluon.html.BODY'>"
p159
sS'IS_DATE_IN_RANGE'
p160
S"<class 'gluon.validators.IS_DATE_IN_RANGE'>"
p161
sS'TH'
p162
S"<class 'gluon.html.TH'>"
p163
sS'URL'
p164
S'<function URL>'
p165
sS'__file__'
p166
S"'/home/krishna/ACADEMICS/SEM(1-2)/ASGN AND QUESTI...PROJECT/web2py/applications/Cabshare/models/db.py'"
p167
sS'db'
p168
S'<DAL uri="sqlite://storage.sqlite">'
p169
sS'auth'
p170
S'<gluon.tools.Auth object>'
p171
sS'P'
S"<class 'gluon.html.P'>"
p172
sS'TFOOT'
p173
S"<class 'gluon.html.TFOOT'>"
p174
sS'XHTML'
p175
S"<class 'gluon.html.XHTML'>"
p176
sS'ON'
p177
g93
sS'OL'
p178
S"<class 'gluon.html.OL'>"
p179
sS'TEXTAREA'
p180
S"<class 'gluon.html.TEXTAREA'>"
p181
sS'MENU'
p182
S"<class 'gluon.html.MENU'>"
p183
sS'LOAD'
p184
S'<function LOAD>'
p185
sS'CODE'
p186
S"<class 'gluon.html.CODE'>"
p187
sS'HTTP'
p188
S"<class 'gluon.http.HTTP'>"
p189
sS'HR'
p190
S"<class 'gluon.html.HR'>"
p191
sS'IS_DATETIME'
p192
S"<class 'gluon.validators.IS_DATETIME'>"
p193
sS'HEAD'
p194
S"<class 'gluon.html.HEAD'>"
p195
sS'LABEL'
p196
S"<class 'gluon.html.LABEL'>"
p197
sS'CLEANUP'
p198
S"<class 'gluon.validators.CLEANUP'>"
p199
sS'plugins'
p200
S'<gluon.tools.PluginManager object>'
p201
sS'SELECT'
p202
S"<class 'gluon.html.SELECT'>"
p203
sS'CENTER'
p204
S"<class 'gluon.html.CENTER'>"
p205
sS'Auth'
p206
S"<class 'gluon.tools.Auth'>"
p207
sS'__builtins__'
p208
S"{'ArithmeticError': <type 'exceptions.ArithmeticError'>, 'AssertionError': <type 'exceptions.AssertionError'>, 'AttributeError': <type 'exceptions.AttributeError'>, 'BaseException': <type 'exceptions.BaseException'>, 'BufferError': <type 'exceptions.BufferError'>, 'BytesWarning': <type 'exceptions.BytesWarning'>, 'DeprecationWarning': <type 'exceptions.DeprecationWarning'>, 'EOFError': <type 'exceptions.EOFError'>, 'Ellipsis': Ellipsis, 'EnvironmentError': <type 'exceptions.EnvironmentError'>, ...}"
p209
sS'HTML'
p210
S"<class 'gluon.html.HTML'>"
p211
sS'SQLFORM'
p212
S"<class 'gluon.sqlhtml.SQLFORM'>"
p213
sS'EM'
p214
S"<class 'gluon.html.EM'>"
p215
sS'redirect'
p216
S'<function redirect>'
p217
sS'FIELDSET'
p218
S"<class 'gluon.html.FIELDSET'>"
p219
sS'IS_EQUAL_TO'
p220
S"<class 'gluon.validators.IS_EQUAL_TO'>"
p221
sS'embed64'
p222
S'<function embed64>'
p223
sS'IS_LIST_OF'
p224
S"<class 'gluon.validators.IS_LIST_OF'>"
p225
sS'__name__'
p226
S"'__restricted__'"
p227
sS'EMBED'
p228
S"<class 'gluon.html.EMBED'>"
p229
sS'FORM'
p230
S"<class 'gluon.html.FORM'>"
p231
sS'myconf'
p232
S"{'forms': {'formstyle': 'bootstrap3_inline', 'se...': {'names': 'localhost:*, 127.0.0.1:*, *:*, *'}}"
p233
sS'H2'
p234
S"<class 'gluon.html.H2'>"
p235
sS'H3'
p236
S"<class 'gluon.html.H3'>"
p237
sS'AppConfig'
p238
S'<function AppConfig>'
p239
sS'H1'
p240
S"<class 'gluon.html.H1'>"
p241
sS'H6'
p242
S"<class 'gluon.html.H6'>"
p243
sS'H4'
p244
S"<class 'gluon.html.H4'>"
p245
sS'H5'
p246
S"<class 'gluon.html.H5'>"
p247
sS'UL'
p248
S"<class 'gluon.html.UL'>"
p249
sS'IS_UPPER'
p250
S"<class 'gluon.validators.IS_UPPER'>"
p251
sS'xmlescape'
p252
S'<function xmlescape>'
p253
sS'IS_TIME'
p254
S"<class 'gluon.validators.IS_TIME'>"
p255
sS'OPTION'
p256
S"<class 'gluon.html.OPTION'>"
p257
sS'TITLE'
p258
S"<class 'gluon.html.TITLE'>"
p259
sS'CRYPT'
p260
S"<class 'gluon.validators.CRYPT'>"
p261
sS'IS_EMPTY_OR'
p262
S"<class 'gluon.validators.IS_EMPTY_OR'>"
p263
sS'MARKMIN'
p264
S"<class 'gluon.html.MARKMIN'>"
p265
sS'INPUT'
p266
S"<class 'gluon.html.INPUT'>"
p267
sS'STRONG'
p268
S"<class 'gluon.html.STRONG'>"
p269
sS'COL'
p270
S"<class 'gluon.html.COL'>"
p271
sS'service'
p272
S'<gluon.tools.Service object>'
p273
sS'SCRIPT'
p274
S"<class 'gluon.html.SCRIPT'>"
p275
sS'usr'
p276
S"'krishna chaitanya'"
p277
sS'TABLE'
p278
S"<class 'gluon.html.TABLE'>"
p279
sS'IS_IPV4'
p280
S"<class 'gluon.validators.IS_IPV4'>"
p281
sS'IS_LENGTH'
p282
S"<class 'gluon.validators.IS_LENGTH'>"
p283
sS'IS_IPV6'
p284
S"<class 'gluon.validators.IS_IPV6'>"
p285
sS'XML'
p286
S"<class 'gluon.html.XML'>"
p287
sS'B'
S"<class 'gluon.html.B'>"
p288
sS'IMG'
p289
S"<class 'gluon.html.IMG'>"
p290
sS'COUNTRIES'
p291
S"('United States', 'Afghanistan', 'Albania', 'Algeria', 'Andorra', 'Angola', 'Antigua and Barbuda', 'Argentina', 'Armenia', 'Australia', 'Austria', 'Azerbaijan', 'Bahamas', 'Bahrain', 'Bangladesh', 'Barbados', 'Belarus', 'Belgium', 'Belize', 'Benin', ...)"
p292
sS'SQLTABLE'
p293
S"<class 'gluon.sqlhtml.SQLTABLE'>"
p294
sS'IS_MATCH'
p295
S"<class 'gluon.validators.IS_MATCH'>"
p296
sS'IS_ALPHANUMERIC'
p297
S"<class 'gluon.validators.IS_ALPHANUMERIC'>"
p298
sS'DIET'
p299
S"('Vegetarian', 'Non-vegetarian', 'Eggetarian')"
p300
sS'SPAN'
p301
S"<class 'gluon.html.SPAN'>"
p302
sS'IS_JSON'
p303
S"<class 'gluon.validators.IS_JSON'>"
p304
sS'IS_IPADDRESS'
p305
S"<class 'gluon.validators.IS_IPADDRESS'>"
p306
sS'IS_SLUG'
p307
S"<class 'gluon.validators.IS_SLUG'>"
p308
sS'BEAUTIFY'
p309
S"<class 'gluon.html.BEAUTIFY'>"
p310
sS'META'
p311
S"<class 'gluon.html.META'>"
p312
sS'BUTTON'
p313
S"<class 'gluon.html.BUTTON'>"
p314
sS'IS_DATE'
p315
S"<class 'gluon.validators.IS_DATE'>"
p316
sS'IS_EMAIL'
p317
S"<class 'gluon.validators.IS_EMAIL'>"
p318
sS'IS_NOT_EMPTY'
p319
S"<class 'gluon.validators.IS_NOT_EMPTY'>"
p320
sS'IS_FLOAT_IN_RANGE'
p321
S"<class 'gluon.validators.IS_FLOAT_IN_RANGE'>"
p322
sS'TBODY'
p323
S"<class 'gluon.html.TBODY'>"
p324
sS'CAT'
p325
S"<class 'gluon.html.CAT'>"
p326
sS'Field'
p327
S"<class 'pydal.objects.Field'>"
p328
sS'IS_LIST_OF_EMAILS'
p329
S"<class 'gluon.validators.IS_LIST_OF_EMAILS'>"
p330
sS'DIV'
p331
S"<class 'gluon.html.DIV'>"
p332
sS'LEGEND'
p333
S"<class 'gluon.html.LEGEND'>"
p334
sS'COLGROUP'
p335
S"<class 'gluon.html.COLGROUP'>"
p336
sS'DAL'
p337
S"<class 'pydal.base.DAL'>"
p338
sS'ASSIGNJS'
p339
S'<function ASSIGNJS>'
p340
sS'TR'
p341
S"<class 'gluon.html.TR'>"
p342
sS'__package__'
p343
S'None'
p344
sS'IFRAME'
p345
S"<class 'gluon.html.IFRAME'>"
p346
sS'TD'
p347
S"<class 'gluon.html.TD'>"
p348
sS'PluginManager'
p349
S"<class 'gluon.tools.PluginManager'>"
p350
sS'IS_URL'
p351
S"<class 'gluon.validators.IS_URL'>"
p352
sS'A'
S"<class 'gluon.html.A'>"
p353
sS'STYLE'
p354
S"<class 'gluon.html.STYLE'>"
p355
sS'IS_DATETIME_IN_RANGE'
p356
S"<class 'gluon.validators.IS_DATETIME_IN_RANGE'>"
p357
sS'IS_IMAGE'
p358
S"<class 'gluon.validators.IS_IMAGE'>"
p359
sS'I'
S"<class 'gluon.html.I'>"
p360
sS'IS_NOT_IN_DB'
p361
S"<class 'gluon.validators.IS_NOT_IN_DB'>"
p362
sg119
S"<Storage {'body': <cStringIO.StringO object at 0...t 0x7fd43b6eb6e0>, 'view': 'default/index.html'}>"
p363
sS'THEAD'
p364
S"<class 'gluon.html.THEAD'>"
p365
sS'ANY_OF'
p366
S"<class 'gluon.validators.ANY_OF'>"
p367
sS'IS_NULL_OR'
p368
S"<class 'gluon.validators.IS_EMPTY_OR'>"
p369
sg56
S"<Storage {'_vars': None, 'function': 'index', 'c...OJECT/V3/PROJECT/web2py/applications/Cabshare/'}>"
p370
sS'IS_EXPR'
p371
S"<class 'gluon.validators.IS_EXPR'>"
p372
sS'IS_IN_SET'
p373
S"<class 'gluon.validators.IS_IN_SET'>"
p374
sS'IS_UPLOAD_FILENAME'
p375
S"<class 'gluon.validators.IS_UPLOAD_FILENAME'>"
p376
sS'IS_DECIMAL_IN_RANGE'
p377
S"<class 'gluon.validators.IS_DECIMAL_IN_RANGE'>"
p378
sS'TT'
p379
S"<class 'gluon.html.TT'>"
p380
sS'T'
S'<gluon.languages.translator object>'
p381
sssS'traceback'
p382
S'Traceback (most recent call last):\n  File "/home/krishna/ACADEMICS/SEM(1-2)/ASGN AND QUESTIONS/ITWS-2/PROJECT/V3/PROJECT/web2py/gluon/restricted.py", line 227, in restricted\n    exec ccode in environment\n  File "/home/krishna/ACADEMICS/SEM(1-2)/ASGN AND QUESTIONS/ITWS-2/PROJECT/V3/PROJECT/web2py/applications/Cabshare/models/db.py", line 156, in <module>\n    Field(\'candid\',\'integer\',readable=True,writable=False,Label="Rate the user"),\nTypeError: __init__() got an unexpected keyword argument \'Label\'\n'
p383
s.