(dp1
S'output'
p2
S"<type 'exceptions.NameError'> name 'feedback' is not defined"
p3
sS'layer'
p4
S'/home/krishna/ACADEMICS/SEM(1-2)/ASGN AND QUESTIONS/ITWS-2/PROJECT/V6/PROJECT/web2py/applications/Cabshare/views/default/index.html'
p5
sS'code'
p6
S'response.write(\'<!DOCTYPE html>\\n<!--[if (gt IE 9)|!(IE)]><!--> <html class="no-js" lang="\', escape=False)\nresponse.write(T.accepted_language or \'en\')\nresponse.write(\'"> <!--<![endif]-->\\n  <head>\\n    <meta charset="utf-8">\\n    <!-- www.phpied.com/conditional-comments-block-downloads/ -->\\n    <!-- Always force latest IE rendering engine\\n         (even in intranet) & Chrome Frame\\n         Remove this if you use the .htaccess -->\\n    <meta http-equiv="X-UA-Compatible" content="IE=edge\', escape=False)\nresponse.write(not request.is_local and \',chrome=1\' or \'\')\nresponse.write(\'">\\n    <!--  Mobile Viewport Fix\\n          j.mp/mobileviewport & davidbcalhoun.com/2010/viewport-metatag\\n          device-width: Occupy full width of the screen in its current orientation\\n          initial-scale = 1.0 retains dimensions instead of zooming out if page height > device height\\n          user-scalable = yes allows the user to zoom in -->\\n    <meta name="viewport" content="width=device-width, initial-scale=1.0">\\n    <title>\', escape=False)\nresponse.write(response.title or request.application)\nresponse.write(\'</title>\\n    <!-- http://dev.w3.org/html5/markup/meta.name.html -->\\n    <meta name="application-name" content="\', escape=False)\nresponse.write(request.application)\nresponse.write(\'">\\n    <!-- Speaking of Google, don\\\'t forget to set your site up:\\n         http://google.com/webmasters -->\\n    <meta name="google-site-verification" content="">\\n    <!-- include stylesheets -->\\n    <link rel="stylesheet" href="\', escape=False)\nresponse.write(URL(\'static\',\'css/bootstrap.min.css\'))\nresponse.write(\'"/>\\n    <link rel="stylesheet" href="\', escape=False)\nresponse.write(URL(\'static\',\'css/web2py-bootstrap3.css\'))\nresponse.write(\'"/>\\n    <link rel="shortcut icon" href="\', escape=False)\nresponse.write(URL(\'static\',\'images/favicon.ico\'))\nresponse.write(\'" type="image/x-icon">\\n    <link rel="apple-touch-icon" href="\', escape=False)\nresponse.write(URL(\'static\',\'images/favicon.png\'))\nresponse.write(\'">\\n    <!-- All JavaScript at the bottom, except for Modernizr which enables\\n         HTML5 elements & feature detects -->\\n    <script src="\', escape=False)\nresponse.write(URL(\'static\',\'js/modernizr-2.8.3.min.js\'))\nresponse.write(\'"></script>\\n    <!--[if lt IE 9]>\\n        <script src="\', escape=False)\nresponse.write(URL(\'static\',\'js/respond-1.4.2.min.js\'))\nresponse.write(\'"></script>\\n        <![endif]-->\\n    <!-- Favicons -->\\n    \', escape=False)\nresponse.write(\'<script type="text/javascript"><!--\\n    // These variables are used by the web2py_ajax_init function in web2py_ajax.js (which is loaded below).\\n    var w2p_ajax_confirm_message = "\', escape=False)\nresponse.write(T(\'Are you sure you want to delete this object?\'))\nresponse.write(\'";\\n    var w2p_ajax_disable_with_message = "\', escape=False)\nresponse.write(T(\'Working...\'))\nresponse.write(\'";\\n    var w2p_ajax_date_format = "\', escape=False)\nresponse.write(T(\'%Y-%m-%d\'))\nresponse.write(\'";\\n    var w2p_ajax_datetime_format = "\', escape=False)\nresponse.write(T(\'%Y-%m-%d %H:%M:%S\'))\nresponse.write(\'";\\n    var ajax_error_500 = \\\'\', escape=False)\nresponse.write(T.M(\'An error occured, please [[reload %s]] the page\') % URL(args=request.args, vars=request.get_vars))\nresponse.write("\'\\n    //--></script>\\n", escape=False)\nresponse.files.insert(0,URL(\'static\',\'js/jquery.js\'))\nresponse.files.insert(1,URL(\'static\',\'css/calendar.css\'))\nresponse.files.insert(2,URL(\'static\',\'js/calendar.js\'))\nresponse.files.insert(3,URL(\'static\',\'js/web2py.js\'))\nresponse.include_meta()\nresponse.include_files()\nresponse.write(\'\\n\', escape=False)\nresponse.write(\' <!-- this includes jquery.js, calendar.js/.css and web2py.js -->\\n    \', escape=False)\nresponse.write(\'\\n    \', escape=False)\n# using sidebars need to know what sidebar you want to use\nmc0 = \'col-md-12\'\nmc1 = \'col-md-9\'\nmc2 = \'col-md-6\'\nleft_sidebar_enabled = globals().get(\'left_sidebar_enabled\', False)\nright_sidebar_enabled = globals().get(\'right_sidebar_enabled\', False)\nmiddle_column = {0: mc0, 1: mc1, 2: mc2}[\n(left_sidebar_enabled and 1 or 0)+(right_sidebar_enabled and 1 or 0)]\nresponse.write(\'\\n  </head>\\n  <body>\\n    <!--[if lt IE 8]><p class="browserupgrade">You are using an <strong>outdated</strong> browser. Please <a href="http://browsehappy.com/">upgrade your browser</a> to improve your experience.</p><![endif]-->\\n    <div class="w2p_flash alert alert-dismissable">\', escape=False)\nresponse.write(response.flash or \'\')\nresponse.write(\'</div>\\n    <!-- Navbar ======================================= -->\\n    <nav class="navbar navbar-default navbar-fixed-top" role="navigation">\\n      <div class="container-fluid">\\n        <div class="navbar-header">\\n          <button type="button" class="navbar-toggle" data-toggle="collapse" data-target=".navbar-collapse">\\n            <span class="sr-only">Toggle navigation</span>\\n            <span class="icon-bar"></span>\\n            <span class="icon-bar"></span>\\n            <span class="icon-bar"></span>\\n          </button>\\n          \', escape=False)\nresponse.write(response.logo or \'\')\nresponse.write(\'\\n        </div>\\n        <div class="collapse navbar-collapse navbar-ex1-collapse">\\n          <ul class="nav navbar-nav navbar-right">\\n            \', escape=False)\nresponse.write(\'auth\' in globals() and auth.navbar(\'Welcome\',mode=\'dropdown\') or \'\')\nresponse.write(\'\\n          </ul>\\n          \', escape=False)\nif response.menu:\n    response.write(\'\\n          \', escape=False)\n    response.write(MENU(response.menu, _class=\'nav navbar-nav\',li_class=\'dropdown\',ul_class=\'dropdown-menu\'))\n    response.write(\'\\n          \', escape=False)\n    pass\nresponse.write(\'\\n        </div>\\n      </div>\\n    </nav>\\n      <style>\\n           .navbar{\\n        margin-left:120px;\\n        display: block;\\n        width: 150px;\\n        height: 900px;\\n\\t   background: #ffff80;\\n\\t   color : white;\\n    }\\n      </style>\\n      <link rel="icon" href="\', escape=False)\nresponse.write(URL(\'static\',\'images/Cab.png\'))\nresponse.write(\'">\\n    <!-- Masthead ===================================== -->    \\n    \', escape=False)\nresponse.write(\'\\n    \', escape=False)\nresponse.write(\'\\n    <!-- Main ========================================= -->\\n    <!-- Begin page content -->\\n    <div class="container-fluid main-container">\\n      \', escape=False)\nif left_sidebar_enabled:\n    response.write(\'\\n        <div class="col-md-3 left-sidebar">\\n            \', escape=False)\n    response.write(\'\\n            <h3>Left Sidebar</h3>\\n            <p></p>\\n            \', escape=False)\n    response.write(\'\\n        </div>\\n      \', escape=False)\n    pass\nresponse.write(\'\\n      <div class="\', escape=False)\nresponse.write(middle_column)\nresponse.write(\'">\\n        \', escape=False)\nresponse.write(\'\\n        \', escape=False)\nresponse.write(\'\\n\\n<!-- The page essentially contains three major portions,namely trips list with pagination and 2)Notiifcation bar with pagination and the 3)personal messages bar with a scroll option. -->\\n<div id="Home" class="hi">\\n<h1>\', escape=False)\nresponse.write(uname)\nresponse.write(\'\\\'s Home</h1>\\n<!-- The code about the notifications page.-->\\n<div id="notif">\\n  <a href=\', escape=False)\nresponse.write(URL(\'default\',\'ntf\'))\nresponse.write(\'> <h4>Notifications</h4></a>\\n  <!-- Clicking on it gives a page full of paginated notifications. -->\\n    <table class="table table-striped" id="ntt">\\n    \', escape=False)\ncnt=0\nresponse.write(\'\\n    \', escape=False)\nfor j in nans:\n    response.write(\'\\n    <tr  class="one">\\n      <td  rowspan="2">\', escape=False)\n    if j.type_of==1:\n        response.write(\'<a href=\', escape=False)\n        response.write(URL(\'default\',\'profile_view\',args=ids[cnt]))\n        response.write(\'>\', escape=False)\n        response.write(IMG(_src=URL(\'default\',\'download\',args=tt[cnt]),_alt="Pic not Available",_height="40px",_weight="40px"))\n        response.write(\'</a>\', escape=False)\n        pass\n    response.write(\'\\n\\t\', escape=False)\n    if j.type_of==2:\n        response.write(\'<a href=\', escape=False)\n        response.write(URL(\'default\',\'profile_view\',args=ids[cnt]))\n        response.write(\'>\', escape=False)\n        response.write(IMG(_src=URL(\'default\',\'download\',args=tt[cnt]),_alt="Pic Not Available",_height="40px",_weight="40px"))\n        response.write(\'</a>\', escape=False)\n        pass\n    response.write(\'\\n\\t\', escape=False)\n    if j.type_of==3:\n        response.write(\'<a href=\', escape=False)\n        response.write(URL(\'default\',\'fill_feedback\',args=ids[cnt]))\n        response.write(\'>\', escape=False)\n        response.write(IMG(_src=URL(\'static\',\'images\',args=feedback.jpg),_alt="Pic not available",_height="40px",_weight="40px"))\n        pass\n    response.write(\'\\n\\t  \', escape=False)\n    if j.type_of==4:\n        response.write(\'<a href=\', escape=False)\n        response.write(URL(\'default\',\'check_feedback\',args=ids[cnt]))\n        response.write(\'>\', escape=False)\n        response.write(IMG(_src=URL(\'static\',\'images\',args=check.jpg),_alt="Pic not Available",_height="40px",_weight="40px"))\n        pass\n    response.write(\'\\n      </td>      \\n\\n      <td> \', escape=False)\n    if j.type_of==1:\n        response.write(\'<a onclick="ajax (\\\'\', escape=False)\n        response.write(URL(\'default\',\'nvis\',args=j.id))\n        response.write(\'\\\')" href="\', escape=False)\n        response.write(URL(\'default\',\'particularasadmin\',args=j.tripid))\n        response.write(\'"> \', escape=False)\n        response.write(name[cnt])\n        response.write(\' has sent you a requset to join trip.</a>\', escape=False)\n        pass\n    response.write(\'\\n\\t\', escape=False)\n    if j.type_of==2:\n        response.write(\'<a onclick="ajax (\\\'\', escape=False)\n        response.write(URL(\'default\',\'nvis\',args=j.id))\n        response.write(\'\\\')" href="\', escape=False)\n        response.write(URL(\'default\',\'particular\',args=j.tripid))\n        response.write(\'"> \', escape=False)\n        response.write(name[cnt])\n        response.write(\' has accepted your requset to join trip.</a>\', escape=False)\n        pass\n    response.write(\'\\n\\t\', escape=False)\n    if j.type_of==3:\n        response.write(\'<a onclick="ajax(\\\'\', escape=False)\n        response.write(URL(\'default\',\'nvis\',args=j.id))\n        response.write(\'\\\')" href="\', escape=False)\n        response.write(URL(\'default\',\'view_feedback\',args=j.tripid))\n        response.write(\'">Please give your valuable feedback about the trip.</a>\', escape=False)\n        pass\n    response.write(\'\\n\\t\', escape=False)\n    if j.type_of==4:\n        response.write(\'View the feedback given about you by \', escape=False)\n        response.write(name[cnt])\n        response.write(\'.\', escape=False)\n        pass\n    response.write(\'\\n      </td>\\n    </tr>\\n    <tr class="two">\\n      <td>This notification popped up at \', escape=False)\n    response.write(j.time_of)\n    response.write(\' on \', escape=False)\n    response.write(j.date_of)\n    response.write(\'.</td>\\n    </tr>\\n    \', escape=False)\n    cnt = cnt+1\n    response.write(\'\\n    \', escape=False)\n    pass\nresponse.write(\'\\n  </table>\\n</div>\\n<!-- The code about the notifications page.-->\\n\\n\\n<!-- The code about the trips starts here -->\\n<div id="trips">\\n<table class="table table-hover table-sm">\\n      <thead><tr>\\n    <th style="text-align:center;width:10em;">Starter</th>\\n    <th style="text-align:center;width:10em;">From</th>\\n    <th style="text-align:center;width:10em;">To</th>\\n    <th style="text-align:center;width:10em;">Date</th>\\n    <th style="text-align:center;width:10em;">Earliest time</th>\\n    <th style="text-align:center;width:10em;">Latest time</th>\\n    <th style="text-align:center;width:10em;">maximum passengers</th>\\n          </tr>\\n    </thead>\\n    <tbody>\\n    \', escape=False)\nfor i,j in enumerate(Trips):\n    response.write(\'\\n\', escape=False)\n    if(i==7):break\n    response.write(\'\\n<tr>\\n    <td style="text-align:center"><a href="\', escape=False)\n    response.write(URL(\'particular\',args=[j.id]))\n    response.write(\'">\', escape=False)\n    response.write(j.starter)\n    response.write(\'</a></td>\\n    <td style="text-align:center">\', escape=False)\n    response.write(j.from_place)\n    response.write(\'</td>\\n    <td style="text-align:center">\', escape=False)\n    response.write(j.to_place)\n    response.write(\'</td>\\n    <td style="text-align:center">\', escape=False)\n    response.write(j.date_of_trip)\n    response.write(\'</td>\\n    <td style="text-align:center">\', escape=False)\n    response.write(j.start_up)\n    response.write(\'</td>\\n    <td style="text-align:center">\', escape=False)\n    response.write(j.start_end)\n    response.write(\'</td>\\n    <td style="text-align:center">\', escape=False)\n    response.write(j.max_people-j.total_tillnow)\n    response.write(\'</td>\\n        </tr>\\n    </tbody>\\n\', escape=False)\n    pass\nresponse.write(\'\\n</table>\\n\', escape=False)\nif(pageno!=0):\n    response.write(\'\\n<a href="\', escape=False)\n    response.write(URL(args=[x-1]))\n    response.write(\'"><button>prev</button></a>\\n\', escape=False)\n    pass\nresponse.write(\'\\n\', escape=False)\nif(len(Trips)>7):\n    response.write(\'\\n<a href="\', escape=False)\n    response.write(URL(args=[x+1]))\n    response.write(\'"><button>next</button></a>\\n\', escape=False)\n    pass\nresponse.write(\'\\n</br>\\n<button id="button" type="button" onclick="opac2()">Search</button>\\n<button id="addtrip" type="button" onclick="opac()">Add Trip</button>\\n\\n</div>\\n\\n<!-- The code about the trips page.-->\\n\\n<!-- The messages code starts here. -->\\n\\n\\n\\n<!-- The messages code ends here. -->\\n</div>\\n<div id="startform" class="form">\', escape=False)\nresponse.write(form)\nresponse.write(\'\\n</div>\\n<div id="searchform" class="form">\', escape=False)\nresponse.write(form1)\nresponse.write(\'\\n</div>\\n<style>\\n\\n      #trips{\\n  width: 65%;\\n      }\\n\\n/*      #bg{\\n      margin-top:-100px;\\n        margin-left:241px;\\n      margin-right:120px;\\n      margin-bottom: -100px;\\n      background: #99ff99;\\n      }*/\\n\\n  #notif{\\n  display: inline-block;\\n  width: 32%;\\n  overflow: scroll;\\n  float: right;\\n  height: 37em;  \\n  }\\n\\n    #startform{\\n        visibility:hidden;\\n        height:30em;\\n        overflow: scroll;\\n        position:fixed;\\n        left:28em;\\n        top:7em;\\n        width: 40em;\\n  }\\n  #searchform\\n  {\\n        visibility:hidden;\\n        height:30em;\\n        position:fixed;\\n        left:27em;\\n        top:7em;\\n        width: 30em;\\n  }\\n      /*    #Home{\\n        margin-top:-40px;\\n        margin-left:270px;\\n        margin-right:120px;\\n      }*/\\n           #Home{\\n        margin-top:-100px;\\n        margin-left:241px;\\n      margin-right:120px;\\n      margin-bottom: -100px;\\n//      background: #99ff99;\\n      height: 43em;\\n      }\\n\\n\\n</style>\\n\\n<script>\\n    function opac()\\n    {\\n        document.getElementById(\\\'Home\\\').style.opacity=0.2;\\n        document.getElementById(\\\'startform\\\').style.visibility="visible";\\n    }\\n    function opac2()\\n    {\\n        document.getElementById(\\\'Home\\\').style.opacity=0.2;\\n        document.getElementById(\\\'searchform\\\').style.visibility="visible";\\n    }\\n</script>\\n\', escape=False)\nresponse.write(\'\\n        \', escape=False)\nresponse.write(\'\\n      </div>\\n\\n      \', escape=False)\nif right_sidebar_enabled:\n    response.write(\'\\n        <div class="col-md-3">\\n            \', escape=False)\n    response.write(\'\\n            <h3>Right Sidebar</h3>\\n            <p></p>\\n            \', escape=False)\n    response.write(\'\\n        </div>\\n      \', escape=False)\n    pass\nresponse.write(\'\\n\\n    </div>\\n\\n    \', escape=False)\nresponse.write(\' <!-- this is default footer -->      \\n    <footer class="footer">\\n      <div class="container-fluid">\\n        <div class="copyright pull-left">\', escape=False)\nresponse.write(T(\'NoCopyright\'))\nresponse.write(\' &#169; \', escape=False)\nresponse.write(request.now.year)\nresponse.write(\'</div>\\n          <div id="poweredBy" class="pull-right">\\n            \', escape=False)\nresponse.write(T(\'Powered by\'))\nresponse.write(\'\\n            <a href="http://www.iiit.ac.in/">IIIT-H</a>\\n          </div>\\n      </div>\\n    </footer>\\n      <style>\\n           .footer{\\n        margin-left:270px;\\n           width:945px;\\n\\t   background: #ffff80;\\n\\t   color : white;\\n\\t   posotion: relative;\\n\\t   bottom: 0px;\\n    }\\n      </style>\\n    \', escape=False)\nresponse.write(\'\\n    <!-- The javascript =============================== -->\\n    <script src="\', escape=False)\nresponse.write(URL(\'static\',\'js/bootstrap.min.js\'))\nresponse.write(\'"></script>\\n    <script src="\', escape=False)\nresponse.write(URL(\'static\',\'js/web2py-bootstrap3.js\'))\nresponse.write(\'"></script>\\n    \', escape=False)\nresponse.write(\'\\n    \', escape=False)\nif response.google_analytics_id:\n    response.write(\'\\n    <!-- Analytics ==================================== -->\\n    <script src="\', escape=False)\n    response.write(URL(\'static\',\'js/analytics.min.js\'))\n    response.write(\'"></script>\\n    <script type="text/javascript">\\n      analytics.initialize({\\n      \\\'Google Analytics\\\':{trackingId:\\\'\', escape=False)\n    response.write(response.google_analytics_id)\n    response.write("\'}\\n      });\\n    </script>\\n    ", escape=False)\n    pass\nresponse.write(\'\\n    <!-- Share ============================y============ -->\\n    <script src="\', escape=False)\nresponse.write(URL(\'static\',\'js/share.js\',vars=dict(static=URL(\'static\',\'images\'))))\nresponse.write(\'"></script>\\n  </body>\\n</html>\\n\', escape=False)'
p7
sS'snapshot'
p8
(dp9
S'exception'
p10
(dp11
S'__hash__'
p12
S"<method-wrapper '__hash__' of exceptions.NameError object>"
p13
sS'__setattr__'
p14
S"<method-wrapper '__setattr__' of exceptions.NameError object>"
p15
sS'__reduce_ex__'
p16
S'<built-in method __reduce_ex__ of exceptions.NameError object>'
p17
sS'__getslice__'
p18
S"<method-wrapper '__getslice__' of exceptions.NameError object>"
p19
sS'__getitem__'
p20
S"<method-wrapper '__getitem__' of exceptions.NameError object>"
p21
sS'__setstate__'
p22
S'<built-in method __setstate__ of exceptions.NameError object>'
p23
sS'args'
p24
S'("name \'feedback\' is not defined",)'
p25
sS'__reduce__'
p26
S'<built-in method __reduce__ of exceptions.NameError object>'
p27
sS'__str__'
p28
S"<method-wrapper '__str__' of exceptions.NameError object>"
p29
sS'__format__'
p30
S'<built-in method __format__ of exceptions.NameError object>'
p31
sS'__getattribute__'
p32
S"<method-wrapper '__getattribute__' of exceptions.NameError object>"
p33
sS'__class__'
p34
S"<type 'exceptions.NameError'>"
p35
sS'__unicode__'
p36
S'<built-in method __unicode__ of exceptions.NameError object>'
p37
sS'__delattr__'
p38
S"<method-wrapper '__delattr__' of exceptions.NameError object>"
p39
sS'__subclasshook__'
p40
S'<built-in method __subclasshook__ of type object>'
p41
sS'__repr__'
p42
S"<method-wrapper '__repr__' of exceptions.NameError object>"
p43
sS'__dict__'
p44
S'{}'
p45
sS'__sizeof__'
p46
S'<built-in method __sizeof__ of exceptions.NameError object>'
p47
sS'__doc__'
p48
S"'Name not found globally.'"
p49
sS'__init__'
p50
S"<method-wrapper '__init__' of exceptions.NameError object>"
p51
sS'__new__'
p52
S'<built-in method __new__ of type object>'
p53
ssS'evalue'
p54
S"name 'feedback' is not defined"
p55
sS'request'
p56
cgluon.html
XML_unpickle
p57
(S's\xfeX\x00\x00<div><table><tr><td style="font-weight:bold;vertical-align:top;">ajax</td><td style="vertical-align:top;">:</td><td><div>False</div></td></tr><tr><td style="font-weight:bold;vertical-align:top;">application</td><td style="vertical-align:top;">:</td><td><div>Cabshare</div></td></tr><tr><td style="font-weight:bold;vertical-align:top;">args</td><td style="vertical-align:top;">:</td><td><div><table></table></div></td></tr><tr><td style="font-weight:bold;vertical-align:top;">cid</td><td style="vertical-align:top;">:</td><td><div>None</div></td></tr><tr><td style="font-weight:bold;vertical-align:top;">client</td><td style="vertical-align:top;">:</td><td><div>127.0.0.1</div></td></tr><tr><td style="font-weight:bold;vertical-align:top;">controller</td><td style="vertical-align:top;">:</td><td><div>default</div></td></tr><tr><td style="font-weight:bold;vertical-align:top;">cookies</td><td style="vertical-align:top;">:</td><td><div><table><tr><td style="font-weight:bold;vertical-align:top;">session_id_admin</td><td style="vertical-align:top;">:</td><td><div>127.0.0.1-82b52c97-001d-4ea4-ac0b-06c3ad682b54<table><tr><td style="font-weight:bold;vertical-align:top;">comment</td><td style="vertical-align:top;">:</td><td><div></div></td></tr><tr><td style="font-weight:bold;vertical-align:top;">domain</td><td style="vertical-align:top;">:</td><td><div></div></td></tr><tr><td style="font-weight:bold;vertical-align:top;">expires</td><td style="vertical-align:top;">:</td><td><div></div></td></tr><tr><td style="font-weight:bold;vertical-align:top;">httponly</td><td style="vertical-align:top;">:</td><td><div></div></td></tr><tr><td style="font-weight:bold;vertical-align:top;">max-age</td><td style="vertical-align:top;">:</td><td><div></div></td></tr><tr><td style="font-weight:bold;vertical-align:top;">path</td><td style="vertical-align:top;">:</td><td><div></div></td></tr><tr><td style="font-weight:bold;vertical-align:top;">secure</td><td style="vertical-align:top;">:</td><td><div></div></td></tr><tr><td style="font-weight:bold;vertical-align:top;">version</td><td style="vertical-align:top;">:</td><td><div></div></td></tr></table></div></td></tr><tr><td style="font-weight:bold;vertical-align:top;">session_id_cabshare</td><td style="vertical-align:top;">:</td><td><div>127.0.0.1-3c50027e-129b-4b37-ad8f-2389fc37acc6<table><tr><td style="font-weight:bold;vertical-align:top;">comment</td><td style="vertical-align:top;">:</td><td><div></div></td></tr><tr><td style="font-weight:bold;vertical-align:top;">domain</td><td style="vertical-align:top;">:</td><td><div></div></td></tr><tr><td style="font-weight:bold;vertical-align:top;">expires</td><td style="vertical-align:top;">:</td><td><div></div></td></tr><tr><td style="font-weight:bold;vertical-align:top;">httponly</td><td style="vertical-align:top;">:</td><td><div></div></td></tr><tr><td style="font-weight:bold;vertical-align:top;">max-age</td><td style="vertical-align:top;">:</td><td><div></div></td></tr><tr><td style="font-weight:bold;vertical-align:top;">path</td><td style="vertical-align:top;">:</td><td><div></div></td></tr><tr><td style="font-weight:bold;vertical-align:top;">secure</td><td style="vertical-align:top;">:</td><td><div></div></td></tr><tr><td style="font-weight:bold;vertical-align:top;">version</td><td style="vertical-align:top;">:</td><td><div></div></td></tr></table></div></td></tr></table></div></td></tr><tr><td style="font-weight:bold;vertical-align:top;">env</td><td style="vertical-align:top;">:</td><td><div><table><tr><td style="font-weight:bold;vertical-align:top;">HTTP_ACCEPT</td><td style="vertical-align:top;">:</td><td><div>text/html,application/xhtml+xml,application/xml;q=0.9,*/*;q=0.8</div></td></tr><tr><td style="font-weight:bold;vertical-align:top;">HTTP_ACCEPT_ENCODING</td><td style="vertical-align:top;">:</td><td><div>gzip, deflate</div></td></tr><tr><td style="font-weight:bold;vertical-align:top;">HTTP_ACCEPT_LANGUAGE</td><td style="vertical-align:top;">:</td><td><div>en-US,en;q=0.5</div></td></tr><tr><td style="font-weight:bold;vertical-align:top;">HTTP_CACHE_CONTROL</td><td style="vertical-align:top;">:</td><td><div>max-age=0</div></td></tr><tr><td style="font-weight:bold;vertical-align:top;">HTTP_CONNECTION</td><td style="vertical-align:top;">:</td><td><div>keep-alive</div></td></tr><tr><td style="font-weight:bold;vertical-align:top;">HTTP_COOKIE</td><td style="vertical-align:top;">:</td><td><div>session_id_cabshare=127.0.0.1-3c50027e-129b-4b37-ad8f-2389fc37acc6; session_id_admin=127.0.0.1-82b52c97-001d-4ea4-ac0b-06c3ad682b54</div></td></tr><tr><td style="font-weight:bold;vertical-align:top;">HTTP_HOST</td><td style="vertical-align:top;">:</td><td><div>localhost:8000</div></td></tr><tr><td style="font-weight:bold;vertical-align:top;">HTTP_REFERER</td><td style="vertical-align:top;">:</td><td><div>http://localhost:8000/Cabshare/default/user/login?_next=/Cabshare/default/index</div></td></tr><tr><td style="font-weight:bold;vertical-align:top;">HTTP_USER_AGENT</td><td style="vertical-align:top;">:</td><td><div>Mozilla/5.0 (X11; Fedora; Linux x86_64; rv:41.0) Gecko/20100101 Firefox/41.0</div></td></tr><tr><td style="font-weight:bold;vertical-align:top;">PATH_INFO</td><td style="vertical-align:top;">:</td><td><div>/Cabshare/default/index</div></td></tr><tr><td style="font-weight:bold;vertical-align:top;">QUERY_STRING</td><td style="vertical-align:top;">:</td><td><div></div></td></tr><tr><td style="font-weight:bold;vertical-align:top;">REMOTE_ADDR</td><td style="vertical-align:top;">:</td><td><div>127.0.0.1</div></td></tr><tr><td style="font-weight:bold;vertical-align:top;">REMOTE_PORT</td><td style="vertical-align:top;">:</td><td><div>36668</div></td></tr><tr><td style="font-weight:bold;vertical-align:top;">REQUEST_METHOD</td><td style="vertical-align:top;">:</td><td><div>GET</div></td></tr><tr><td style="font-weight:bold;vertical-align:top;">SCRIPT_NAME</td><td style="vertical-align:top;">:</td><td><div></div></td></tr><tr><td style="font-weight:bold;vertical-align:top;">SERVER_NAME</td><td style="vertical-align:top;">:</td><td><div>chaitanya-pc</div></td></tr><tr><td style="font-weight:bold;vertical-align:top;">SERVER_PORT</td><td style="vertical-align:top;">:</td><td><div>8000</div></td></tr><tr><td style="font-weight:bold;vertical-align:top;">SERVER_PROTOCOL</td><td style="vertical-align:top;">:</td><td><div>HTTP/1.1</div></td></tr><tr><td style="font-weight:bold;vertical-align:top;">SERVER_SOFTWARE</td><td style="vertical-align:top;">:</td><td><div>Rocket 1.2.6</div></td></tr><tr><td style="font-weight:bold;vertical-align:top;">app_folders</td><td style="vertical-align:top;">:</td><td><div>set([&#x27;/home/krishna/ACADEMICS/SEM(1-2)/ASGN AND QUESTIONS/ITWS-2/PROJECT/V6/PROJECT/web2py/applications/Cabshare/&#x27;])</div></td></tr><tr><td style="font-weight:bold;vertical-align:top;">applications_parent</td><td style="vertical-align:top;">:</td><td><div>/home/krishna/ACADEMICS/SEM(1-2)/ASGN AND QUESTIONS/ITWS-2/PROJECT/V6/PROJECT/web2py</div></td></tr><tr><td style="font-weight:bold;vertical-align:top;">cmd_args</td><td style="vertical-align:top;">:</td><td><div><table></table></div></td></tr><tr><td style="font-weight:bold;vertical-align:top;">cmd_options</td><td style="vertical-align:top;">:</td><td><div>&lt;Values at 0x7f072663f680: {&#x27;verbose&#x27;: False, &#x27;ip&#x27;: &#x27;127.0.0.1&#x27;, &#x27;debuglevel&#x27;: 30, &#x27;with_scheduler&#x27;: False, &#x27;shutdown_timeout&#x27;: 5, &#x27;taskbar&#x27;: False, &#x27;with_coverage&#x27;: False, &#x27;pid_filename&#x27;: &#x27;httpserver.pid&#x27;, &#x27;maxthreads&#x27;: None, &#x27;softcron&#x27;: False, &#x27;server_name&#x27;: &#x27;chaitanya-pc&#x27;, &#x27;bpython&#x27;: False, &#x27;nogui&#x27;: False, &#x27;port&#x27;: 8000, &#x27;print_errors&#x27;: False, &#x27;extcron&#x27;: False, &#x27;runcron&#x27;: False, &#x27;run_system_tests&#x27;: False, &#x27;test&#x27;: None, &#x27;folder&#x27;: &#x27;/home/krishna/ACADEMICS/SEM(1-2)/ASGN AND QUESTIONS/ITWS-2/PROJECT/V6/PROJECT/web2py&#x27;, &#x27;config&#x27;: &#x27;&#x27;, &#x27;minthreads&#x27;: None, &#x27;shell&#x27;: None, &#x27;run&#x27;: &#x27;&#x27;, &#x27;log_filename&#x27;: &#x27;httpserver.log&#x27;, &#x27;profiler_dir&#x27;: None, &#x27;args&#x27;: [&#x27;&#x27;], &#x27;socket_timeout&#x27;: 5, &#x27;ssl_ca_certificate&#x27;: None, &#x27;scheduler&#x27;: None, &#x27;interfaces&#x27;: None, &#x27;ssl_private_key&#x27;: &#x27;&#x27;, &#x27;gae&#x27;: None, &#x27;password&#x27;: &#x27;******&#x27;, &#x27;request_queue_size&#x27;: 5, &#x27;ssl_certificate&#x27;: &#x27;&#x27;, &#x27;cronjob&#x27;: False, &#x27;numthreads&#x27;: None, &#x27;quiet&#x27;: False, &#x27;import_models&#x27;: False, &#x27;timeout&#x27;: 10, &#x27;plain&#x27;: False, &#x27;nobanner&#x27;: False}&gt;</div></td></tr><tr><td style="font-weight:bold;vertical-align:top;">db_sessions</td><td style="vertical-align:top;">:</td><td><div>set([])</div></td></tr><tr><td style="font-weight:bold;vertical-align:top;">debugging</td><td style="vertical-align:top;">:</td><td><div>False</div></td></tr><tr><td style="font-weight:bold;vertical-align:top;">gluon_parent</td><td style="vertical-align:top;">:</td><td><div>/home/krishna/ACADEMICS/SEM(1-2)/ASGN AND QUESTIONS/ITWS-2/PROJECT/V6/PROJECT/web2py</div></td></tr><tr><td style="font-weight:bold;vertical-align:top;">http_accept</td><td style="vertical-align:top;">:</td><td><div>text/html,application/xhtml+xml,application/xml;q=0.9,*/*;q=0.8</div></td></tr><tr><td style="font-weight:bold;vertical-align:top;">http_accept_encoding</td><td style="vertical-align:top;">:</td><td><div>gzip, deflate</div></td></tr><tr><td style="font-weight:bold;vertical-align:top;">http_accept_language</td><td style="vertical-align:top;">:</td><td><div>en-US,en;q=0.5</div></td></tr><tr><td style="font-weight:bold;vertical-align:top;">http_cache_control</td><td style="vertical-align:top;">:</td><td><div>max-age=0</div></td></tr><tr><td style="font-weight:bold;vertical-align:top;">http_connection</td><td style="vertical-align:top;">:</td><td><div>keep-alive</div></td></tr><tr><td style="font-weight:bold;vertical-align:top;">http_cookie</td><td style="vertical-align:top;">:</td><td><div>session_id_cabshare=127.0.0.1-3c50027e-129b-4b37-ad8f-2389fc37acc6; session_id_admin=127.0.0.1-82b52c97-001d-4ea4-ac0b-06c3ad682b54</div></td></tr><tr><td style="font-weight:bold;vertical-align:top;">http_host</td><td style="vertical-align:top;">:</td><td><div>localhost:8000</div></td></tr><tr><td style="font-weight:bold;vertical-align:top;">http_referer</td><td style="vertical-align:top;">:</td><td><div>http://localhost:8000/Cabshare/default/user/login?_next=/Cabshare/default/index</div></td></tr><tr><td style="font-weight:bold;vertical-align:top;">http_user_agent</td><td style="vertical-align:top;">:</td><td><div>Mozilla/5.0 (X11; Fedora; Linux x86_64; rv:41.0) Gecko/20100101 Firefox/41.0</div></td></tr><tr><td style="font-weight:bold;vertical-align:top;">is_jython</td><td style="vertical-align:top;">:</td><td><div>False</div></td></tr><tr><td style="font-weight:bold;vertical-align:top;">is_pypy</td><td style="vertical-align:top;">:</td><td><div>False</div></td></tr><tr><td style="font-weight:bold;vertical-align:top;">is_source</td><td style="vertical-align:top;">:</td><td><div>True</div></td></tr><tr><td style="font-weight:bold;vertical-align:top;">local_hosts</td><td style="vertical-align:top;">:</td><td><div><table><tr><td><div>chaitanya-pc</div></td></tr><tr><td><div>fe80::665a:4ff:fe86:63d2%wlp2s0</div></td></tr><tr><td><div>10.2.129.236</div></td></tr><tr><td><div>::ffff:127.0.0.1</div></td></tr><tr><td><div>::1</div></td></tr><tr><td><div>192.168.124.1</div></td></tr><tr><td><div>fe80::7686:7aff:fe3f:d087%enp1s0</div></td></tr><tr><td><div>10.3.9.48</div></td></tr><tr><td><div>127.0.0.1</div></td></tr></table></div></td></tr><tr><td style="font-weight:bold;vertical-align:top;">path_info</td><td style="vertical-align:top;">:</td><td><div>/Cabshare/default/index</div></td></tr><tr><td style="font-weight:bold;vertical-align:top;">query_string</td><td style="vertical-align:top;">:</td><td><div></div></td></tr><tr><td style="font-weight:bold;vertical-align:top;">remote_addr</td><td style="vertical-align:top;">:</td><td><div>127.0.0.1</div></td></tr><tr><td style="font-weight:bold;vertical-align:top;">remote_port</td><td style="vertical-align:top;">:</td><td><div>36668</div></td></tr><tr><td style="font-weight:bold;vertical-align:top;">request_method</td><td style="vertical-align:top;">:</td><td><div>GET</div></td></tr><tr><td style="font-weight:bold;vertical-align:top;">request_uri</td><td style="vertical-align:top;">:</td><td><div>/Cabshare/default/index</div></td></tr><tr><td style="font-weight:bold;vertical-align:top;">script_name</td><td style="vertical-align:top;">:</td><td><div></div></td></tr><tr><td style="font-weight:bold;vertical-align:top;">server_name</td><td style="vertical-align:top;">:</td><td><div>chaitanya-pc</div></td></tr><tr><td style="font-weight:bold;vertical-align:top;">server_port</td><td style="vertical-align:top;">:</td><td><div>8000</div></td></tr><tr><td style="font-weight:bold;vertical-align:top;">server_protocol</td><td style="vertical-align:top;">:</td><td><div>HTTP/1.1</div></td></tr><tr><td style="font-weight:bold;vertical-align:top;">server_software</td><td style="vertical-align:top;">:</td><td><div>Rocket 1.2.6</div></td></tr><tr><td style="font-weight:bold;vertical-align:top;">web2py_path</td><td style="vertical-align:top;">:</td><td><div>/home/krishna/ACADEMICS/SEM(1-2)/ASGN AND QUESTIONS/ITWS-2/PROJECT/V6/PROJECT/web2py</div></td></tr><tr><td style="font-weight:bold;vertical-align:top;">web2py_version</td><td style="vertical-align:top;">:</td><td><div>2.14.3-stable+timestamp.2016.03.26.23.02.02</div></td></tr><tr><td style="font-weight:bold;vertical-align:top;">wsgi.errors</td><td style="vertical-align:top;">:</td><td><div>&lt;open file &#x27;&lt;stderr&gt;&#x27;, mode &#x27;w&#x27; at 0x7f0734f291e0&gt;</div></td></tr><tr><td style="font-weight:bold;vertical-align:top;">wsgi.file_wrapper</td><td style="vertical-align:top;">:</td><td><div>&lt;class wsgiref.util.FileWrapper at 0x7f07265ee668&gt;</div></td></tr><tr><td style="font-weight:bold;vertical-align:top;">wsgi.input</td><td style="vertical-align:top;">:</td><td><div>&lt;socket._fileobject object at 0x7f07261b02d0&gt;</div></td></tr><tr><td style="font-weight:bold;vertical-align:top;">wsgi.multiprocess</td><td style="vertical-align:top;">:</td><td><div>False</div></td></tr><tr><td style="font-weight:bold;vertical-align:top;">wsgi.multithread</td><td style="vertical-align:top;">:</td><td><div>True</div></td></tr><tr><td style="font-weight:bold;vertical-align:top;">wsgi.run_once</td><td style="vertical-align:top;">:</td><td><div>False</div></td></tr><tr><td style="font-weight:bold;vertical-align:top;">wsgi.url_scheme</td><td style="vertical-align:top;">:</td><td><div>http</div></td></tr><tr><td style="font-weight:bold;vertical-align:top;">wsgi.version</td><td style="vertical-align:top;">:</td><td><div><table><tr><td><div>1</div></td></tr><tr><td><div>0</div></td></tr></table></div></td></tr><tr><td style="font-weight:bold;vertical-align:top;">wsgi_errors</td><td style="vertical-align:top;">:</td><td><div>&lt;open file &#x27;&lt;stderr&gt;&#x27;, mode &#x27;w&#x27; at 0x7f0734f291e0&gt;</div></td></tr><tr><td style="font-weight:bold;vertical-align:top;">wsgi_file_wrapper</td><td style="vertical-align:top;">:</td><td><div>&lt;class wsgiref.util.FileWrapper at 0x7f07265ee668&gt;</div></td></tr><tr><td style="font-weight:bold;vertical-align:top;">wsgi_input</td><td style="vertical-align:top;">:</td><td><div>&lt;socket._fileobject object at 0x7f07261b02d0&gt;</div></td></tr><tr><td style="font-weight:bold;vertical-align:top;">wsgi_multiprocess</td><td style="vertical-align:top;">:</td><td><div>False</div></td></tr><tr><td style="font-weight:bold;vertical-align:top;">wsgi_multithread</td><td style="vertical-align:top;">:</td><td><div>True</div></td></tr><tr><td style="font-weight:bold;vertical-align:top;">wsgi_run_once</td><td style="vertical-align:top;">:</td><td><div>False</div></td></tr><tr><td style="font-weight:bold;vertical-align:top;">wsgi_url_scheme</td><td style="vertical-align:top;">:</td><td><div>http</div></td></tr><tr><td style="font-weight:bold;vertical-align:top;">wsgi_version</td><td style="vertical-align:top;">:</td><td><div><table><tr><td><div>1</div></td></tr><tr><td><div>0</div></td></tr></table></div></td></tr></table></div></td></tr><tr><td style="font-weight:bold;vertical-align:top;">extension</td><td style="vertical-align:top;">:</td><td><div>html</div></td></tr><tr><td style="font-weight:bold;vertical-align:top;">folder</td><td style="vertical-align:top;">:</td><td><div>/home/krishna/ACADEMICS/SEM(1-2)/ASGN AND QUESTIONS/ITWS-2/PROJECT/V6/PROJECT/web2py/applications/Cabshare/</div></td></tr><tr><td style="font-weight:bold;vertical-align:top;">function</td><td style="vertical-align:top;">:</td><td><div>index</div></td></tr><tr><td style="font-weight:bold;vertical-align:top;">global_settings</td><td style="vertical-align:top;">:</td><td><div><table><tr><td style="font-weight:bold;vertical-align:top;">app_folders</td><td style="vertical-align:top;">:</td><td><div>set([&#x27;/home/krishna/ACADEMICS/SEM(1-2)/ASGN AND QUESTIONS/ITWS-2/PROJECT/V6/PROJECT/web2py/applications/Cabshare/&#x27;])</div></td></tr><tr><td style="font-weight:bold;vertical-align:top;">applications_parent</td><td style="vertical-align:top;">:</td><td><div>/home/krishna/ACADEMICS/SEM(1-2)/ASGN AND QUESTIONS/ITWS-2/PROJECT/V6/PROJECT/web2py</div></td></tr><tr><td style="font-weight:bold;vertical-align:top;">cmd_args</td><td style="vertical-align:top;">:</td><td><div><table></table></div></td></tr><tr><td style="font-weight:bold;vertical-align:top;">cmd_options</td><td style="vertical-align:top;">:</td><td><div>&lt;Values at 0x7f072663f680: {&#x27;verbose&#x27;: False, &#x27;ip&#x27;: &#x27;127.0.0.1&#x27;, &#x27;debuglevel&#x27;: 30, &#x27;with_scheduler&#x27;: False, &#x27;shutdown_timeout&#x27;: 5, &#x27;taskbar&#x27;: False, &#x27;with_coverage&#x27;: False, &#x27;pid_filename&#x27;: &#x27;httpserver.pid&#x27;, &#x27;maxthreads&#x27;: None, &#x27;softcron&#x27;: False, &#x27;server_name&#x27;: &#x27;chaitanya-pc&#x27;, &#x27;bpython&#x27;: False, &#x27;nogui&#x27;: False, &#x27;port&#x27;: 8000, &#x27;print_errors&#x27;: False, &#x27;extcron&#x27;: False, &#x27;runcron&#x27;: False, &#x27;run_system_tests&#x27;: False, &#x27;test&#x27;: None, &#x27;folder&#x27;: &#x27;/home/krishna/ACADEMICS/SEM(1-2)/ASGN AND QUESTIONS/ITWS-2/PROJECT/V6/PROJECT/web2py&#x27;, &#x27;config&#x27;: &#x27;&#x27;, &#x27;minthreads&#x27;: None, &#x27;shell&#x27;: None, &#x27;run&#x27;: &#x27;&#x27;, &#x27;log_filename&#x27;: &#x27;httpserver.log&#x27;, &#x27;profiler_dir&#x27;: None, &#x27;args&#x27;: [&#x27;&#x27;], &#x27;socket_timeout&#x27;: 5, &#x27;ssl_ca_certificate&#x27;: None, &#x27;scheduler&#x27;: None, &#x27;interfaces&#x27;: None, &#x27;ssl_private_key&#x27;: &#x27;&#x27;, &#x27;gae&#x27;: None, &#x27;password&#x27;: &#x27;******&#x27;, &#x27;request_queue_size&#x27;: 5, &#x27;ssl_certificate&#x27;: &#x27;&#x27;, &#x27;cronjob&#x27;: False, &#x27;numthreads&#x27;: None, &#x27;quiet&#x27;: False, &#x27;import_models&#x27;: False, &#x27;timeout&#x27;: 10, &#x27;plain&#x27;: False, &#x27;nobanner&#x27;: False}&gt;</div></td></tr><tr><td style="font-weight:bold;vertical-align:top;">db_sessions</td><td style="vertical-align:top;">:</td><td><div>set([])</div></td></tr><tr><td style="font-weight:bold;vertical-align:top;">debugging</td><td style="vertical-align:top;">:</td><td><div>False</div></td></tr><tr><td style="font-weight:bold;vertical-align:top;">gluon_parent</td><td style="vertical-align:top;">:</td><td><div>/home/krishna/ACADEMICS/SEM(1-2)/ASGN AND QUESTIONS/ITWS-2/PROJECT/V6/PROJECT/web2py</div></td></tr><tr><td style="font-weight:bold;vertical-align:top;">is_jython</td><td style="vertical-align:top;">:</td><td><div>False</div></td></tr><tr><td style="font-weight:bold;vertical-align:top;">is_pypy</td><td style="vertical-align:top;">:</td><td><div>False</div></td></tr><tr><td style="font-weight:bold;vertical-align:top;">is_source</td><td style="vertical-align:top;">:</td><td><div>True</div></td></tr><tr><td style="font-weight:bold;vertical-align:top;">local_hosts</td><td style="vertical-align:top;">:</td><td><div><table><tr><td><div>chaitanya-pc</div></td></tr><tr><td><div>fe80::665a:4ff:fe86:63d2%wlp2s0</div></td></tr><tr><td><div>10.2.129.236</div></td></tr><tr><td><div>::ffff:127.0.0.1</div></td></tr><tr><td><div>::1</div></td></tr><tr><td><div>192.168.124.1</div></td></tr><tr><td><div>fe80::7686:7aff:fe3f:d087%enp1s0</div></td></tr><tr><td><div>10.3.9.48</div></td></tr><tr><td><div>127.0.0.1</div></td></tr></table></div></td></tr><tr><td style="font-weight:bold;vertical-align:top;">web2py_version</td><td style="vertical-align:top;">:</td><td><div>2.14.3-stable+timestamp.2016.03.26.23.02.02</div></td></tr></table></div></td></tr><tr><td style="font-weight:bold;vertical-align:top;">is_https</td><td style="vertical-align:top;">:</td><td><div>False</div></td></tr><tr><td style="font-weight:bold;vertical-align:top;">is_local</td><td style="vertical-align:top;">:</td><td><div>True</div></td></tr><tr><td style="font-weight:bold;vertical-align:top;">is_restful</td><td style="vertical-align:top;">:</td><td><div>False</div></td></tr><tr><td style="font-weight:bold;vertical-align:top;">is_scheduler</td><td style="vertical-align:top;">:</td><td><div>False</div></td></tr><tr><td style="font-weight:bold;vertical-align:top;">is_shell</td><td style="vertical-align:top;">:</td><td><div>False</div></td></tr><tr><td style="font-weight:bold;vertical-align:top;">now</td><td style="vertical-align:top;">:</td><td><div>datetime.datetime(2016, 4, 28, 13, 51, 11, 733778)</div></td></tr><tr><td style="font-weight:bold;vertical-align:top;">raw_args</td><td style="vertical-align:top;">:</td><td><div></div></td></tr><tr><td style="font-weight:bold;vertical-align:top;">raw_extension</td><td style="vertical-align:top;">:</td><td><div>None</div></td></tr><tr><td style="font-weight:bold;vertical-align:top;">url</td><td style="vertical-align:top;">:</td><td><div>/Cabshare/default/index</div></td></tr><tr><td style="font-weight:bold;vertical-align:top;">utcnow</td><td style="vertical-align:top;">:</td><td><div>datetime.datetime(2016, 4, 28, 17, 51, 11, 733826)</div></td></tr><tr><td style="font-weight:bold;vertical-align:top;">wsgi</td><td style="vertical-align:top;">:</td><td><div>&lt;gluon.main.LazyWSGI object at 0x7f07261c0090&gt;</div></td></tr></table></div>'
tRp58
sS'frames'
p59
(lp60
(dp61
S'file'
p62
S'/home/krishna/ACADEMICS/SEM(1-2)/ASGN AND QUESTIONS/ITWS-2/PROJECT/V6/PROJECT/web2py/gluon/restricted.py'
p63
sS'dump'
p64
(dp65
S'environment'
p66
S"{'A': <class 'gluon.html.A'>, 'ANY_OF': <class 'gluon.validators.ANY_OF'>, 'ASSIGNJS': <function ASSIGNJS>, 'AppConfig': <function AppConfig>, 'Auth': <class 'gluon.tools.Auth'>, 'B': <class 'gluon.html.B'>, 'BEAUTIFY': <class 'gluon.html.BEAUTIFY'>, 'BODY': <class 'gluon.html.BODY'>, 'BR': <class 'gluon.html.BR'>, 'BUTTON': <class 'gluon.html.BUTTON'>, ...}"
p67
sS'ccode'
p68
S'<code object <module> at 0x7f07261b0d30, file "/...tions/Cabshare/views/default/index.html", line 1>'
p69
ssS'lnum'
p70
I227
sS'lines'
p71
(dp72
I224
S'            ccode = code'
p73
sI225
S'        else:'
p74
sI226
S'            ccode = compile2(code, layer)'
p75
sI227
S'        exec ccode in environment'
p76
sI228
S'    except HTTP:'
p77
sI229
S'        raise'
p78
sI230
S'    except RestrictedError:'
p79
sI231
S'        # do not encapsulate (obfuscate) the original RestrictedError'
p80
sI222
S'    try:'
p81
sI223
S'        if isinstance(code, types.CodeType):'
p82
ssS'call'
p83
S'(code=\'response.write(\\\'<!DOCTYPE html>\\\\n<!--[if (gt IE ..."></script>\\\\n  </body>\\\\n</html>\\\\n\\\', escape=False)\', environment={\'A\': <class \'gluon.html.A\'>, \'ANY_OF\': <class \'gluon.validators.ANY_OF\'>, \'ASSIGNJS\': <function ASSIGNJS>, \'AppConfig\': <function AppConfig>, \'Auth\': <class \'gluon.tools.Auth\'>, \'B\': <class \'gluon.html.B\'>, \'BEAUTIFY\': <class \'gluon.html.BEAUTIFY\'>, \'BODY\': <class \'gluon.html.BODY\'>, \'BR\': <class \'gluon.html.BR\'>, \'BUTTON\': <class \'gluon.html.BUTTON\'>, ...}, layer=\'/home/krishna/ACADEMICS/SEM(1-2)/ASGN AND QUESTI...py/applications/Cabshare/views/default/index.html\')'
p84
sS'func'
p85
S'restricted'
p86
sa(dp87
g62
S'/home/krishna/ACADEMICS/SEM(1-2)/ASGN AND QUESTIONS/ITWS-2/PROJECT/V6/PROJECT/web2py/applications/Cabshare/views/default/index.html'
p88
sg64
(dp89
S'overflow'
p90
S'undefined'
p91
sS'scroll'
p92
g91
ssg70
I105
sg71
(dp93
I96
S"        response.write('>', escape=False)"
p94
sI97
S'        response.write(IMG(_src=URL(\'default\',\'download\',args=tt[cnt]),_alt="Pic Not Available",_height="40px",_weight="40px"))'
p95
sI98
S"        response.write('</a>', escape=False)"
p96
sI99
S'        pass'
p97
sI100
S"    response.write('\\n\\t', escape=False)"
p98
sI101
S'    if j.type_of==3:'
p99
sI102
S"        response.write('<a href=', escape=False)"
p100
sI103
S"        response.write(URL('default','fill_feedback',args=ids[cnt]))"
p101
sI104
S"        response.write('>', escape=False)"
p102
sI105
S'        response.write(IMG(_src=URL(\'static\',\'images\',args=feedback.jpg),_alt="Pic not available",_height="40px",_weight="40px"))'
p103
sI106
S'        pass'
p104
sI107
S"    response.write('\\n\\t  ', escape=False)"
p105
sI108
S'    if j.type_of==4:'
p106
sI109
S"        response.write('<a href=', escape=False)"
p107
sI110
S"        response.write(URL('default','check_feedback',args=ids[cnt]))"
p108
sI111
S"        response.write('>', escape=False)"
p109
sI112
S'        response.write(IMG(_src=URL(\'static\',\'images\',args=check.jpg),_alt="Pic not Available",_height="40px",_weight="40px"))'
p110
sI113
S'        pass'
p111
sI114
S"    response.write('\\n      </td>      \\n\\n      <td> ', escape=False)"
p112
sI115
S'    if j.type_of==1:'
p113
ssg83
S'()'
p114
sg85
S'<module>'
p115
sasS'pyver'
p116
S'Python 2.7.10: /usr/bin/python (prefix: /usr)'
p117
sS'session'
p118
g57
(S's\t\x0f\x00\x00<div><table><tr><td style="font-weight:bold;vertical-align:top;">auth</td><td style="vertical-align:top;">:</td><td><div><table><tr><td style="font-weight:bold;vertical-align:top;">expiration</td><td style="vertical-align:top;">:</td><td><div>3600</div></td></tr><tr><td style="font-weight:bold;vertical-align:top;">hmac_key</td><td style="vertical-align:top;">:</td><td><div>de418e0a-13f6-4d4c-81ca-345e1683e2a7</div></td></tr><tr><td style="font-weight:bold;vertical-align:top;">last_visit</td><td style="vertical-align:top;">:</td><td><div>datetime.datetime(2016, 4, 28, 13, 51, 2, 531806)</div></td></tr><tr><td style="font-weight:bold;vertical-align:top;">remember_me</td><td style="vertical-align:top;">:</td><td><div>False</div></td></tr><tr><td style="font-weight:bold;vertical-align:top;">user</td><td style="vertical-align:top;">:</td><td><div><table><tr><td style="font-weight:bold;vertical-align:top;">City</td><td style="vertical-align:top;">:</td><td><div>delhi</div></td></tr><tr><td style="font-weight:bold;vertical-align:top;">Country</td><td style="vertical-align:top;">:</td><td><div>United States</div></td></tr><tr><td style="font-weight:bold;vertical-align:top;">Gender</td><td style="vertical-align:top;">:</td><td><div>MALE</div></td></tr><tr><td style="font-weight:bold;vertical-align:top;">Pp</td><td style="vertical-align:top;">:</td><td><div>auth_user.Pp.ba967e20cd3f5f05.696e6465782e6a706567.jpeg</div></td></tr><tr><td style="font-weight:bold;vertical-align:top;">depend_rate</td><td style="vertical-align:top;">:</td><td><div>Decimal(&#x27;-1.00&#x27;)</div></td></tr><tr><td style="font-weight:bold;vertical-align:top;">dob</td><td style="vertical-align:top;">:</td><td><div>datetime.date(1999, 4, 9)</div></td></tr><tr><td style="font-weight:bold;vertical-align:top;">email</td><td style="vertical-align:top;">:</td><td><div>k.pant@gmail.com</div></td></tr><tr><td style="font-weight:bold;vertical-align:top;">first_name</td><td style="vertical-align:top;">:</td><td><div>kartikey</div></td></tr><tr><td style="font-weight:bold;vertical-align:top;">id</td><td style="vertical-align:top;">:</td><td><div>17L</div></td></tr><tr><td style="font-weight:bold;vertical-align:top;">last_name</td><td style="vertical-align:top;">:</td><td><div>pant</div></td></tr><tr><td style="font-weight:bold;vertical-align:top;">mail_nt</td><td style="vertical-align:top;">:</td><td><div>Yes</div></td></tr><tr><td style="font-weight:bold;vertical-align:top;">phone_no</td><td style="vertical-align:top;">:</td><td><div>8333333336L</div></td></tr><tr><td style="font-weight:bold;vertical-align:top;">registration_id</td><td style="vertical-align:top;">:</td><td><div></div></td></tr><tr><td style="font-weight:bold;vertical-align:top;">registration_key</td><td style="vertical-align:top;">:</td><td><div></div></td></tr><tr><td style="font-weight:bold;vertical-align:top;">reset_password_key</td><td style="vertical-align:top;">:</td><td><div></div></td></tr><tr><td style="font-weight:bold;vertical-align:top;">trips_no</td><td style="vertical-align:top;">:</td><td><div>0L</div></td></tr><tr><td style="font-weight:bold;vertical-align:top;">username</td><td style="vertical-align:top;">:</td><td><div>kartikey_too_easy</div></td></tr><tr><td style="font-weight:bold;vertical-align:top;">votes_no</td><td style="vertical-align:top;">:</td><td><div>0L</div></td></tr></table></div></td></tr><tr><td style="font-weight:bold;vertical-align:top;">user_groups</td><td style="vertical-align:top;">:</td><td><div><table><tr><td style="font-weight:bold;vertical-align:top;">17</td><td style="vertical-align:top;">:</td><td><div>user_17</div></td></tr></table></div></td></tr></table></div></td></tr><tr><td style="font-weight:bold;vertical-align:top;">flash</td><td style="vertical-align:top;">:</td><td><div>None</div></td></tr></table></div>'
tRp119
sS'etype'
p120
S"<type 'exceptions.NameError'>"
p121
sS'date'
p122
S'Thu Apr 28 13:51:11 2016'
p123
sS'response'
p124
g57
(S's\xfb!\x00\x00<div><table><tr><td style="font-weight:bold;vertical-align:top;">body</td><td style="vertical-align:top;">:</td><td><div>&lt;cStringIO.StringO object at 0x7f0726183d88&gt;</div></td></tr><tr><td style="font-weight:bold;vertical-align:top;">cookies</td><td style="vertical-align:top;">:</td><td><div><table><tr><td style="font-weight:bold;vertical-align:top;">session_id_cabshare</td><td style="vertical-align:top;">:</td><td><div>127.0.0.1-3c50027e-129b-4b37-ad8f-2389fc37acc6<table><tr><td style="font-weight:bold;vertical-align:top;">comment</td><td style="vertical-align:top;">:</td><td><div></div></td></tr><tr><td style="font-weight:bold;vertical-align:top;">domain</td><td style="vertical-align:top;">:</td><td><div></div></td></tr><tr><td style="font-weight:bold;vertical-align:top;">expires</td><td style="vertical-align:top;">:</td><td><div></div></td></tr><tr><td style="font-weight:bold;vertical-align:top;">httponly</td><td style="vertical-align:top;">:</td><td><div></div></td></tr><tr><td style="font-weight:bold;vertical-align:top;">max-age</td><td style="vertical-align:top;">:</td><td><div></div></td></tr><tr><td style="font-weight:bold;vertical-align:top;">path</td><td style="vertical-align:top;">:</td><td><div>/</div></td></tr><tr><td style="font-weight:bold;vertical-align:top;">secure</td><td style="vertical-align:top;">:</td><td><div></div></td></tr><tr><td style="font-weight:bold;vertical-align:top;">version</td><td style="vertical-align:top;">:</td><td><div></div></td></tr></table></div></td></tr></table></div></td></tr><tr><td style="font-weight:bold;vertical-align:top;">delimiters</td><td style="vertical-align:top;">:</td><td><div><table><tr><td><div>{{</div></td></tr><tr><td><div>}}</div></td></tr></table></div></td></tr><tr><td style="font-weight:bold;vertical-align:top;">files</td><td style="vertical-align:top;">:</td><td><div><table><tr><td><div>/Cabshare/static/js/jquery.js</div></td></tr><tr><td><div>/Cabshare/static/css/calendar.css</div></td></tr><tr><td><div>/Cabshare/static/js/calendar.js</div></td></tr><tr><td><div>/Cabshare/static/js/web2py.js</div></td></tr></table></div></td></tr><tr><td style="font-weight:bold;vertical-align:top;">flash</td><td style="vertical-align:top;">:</td><td><div>Cabshare Welcomes you!!!!</div></td></tr><tr><td style="font-weight:bold;vertical-align:top;">form_label_separator</td><td style="vertical-align:top;">:</td><td><div></div></td></tr><tr><td style="font-weight:bold;vertical-align:top;">formstyle</td><td style="vertical-align:top;">:</td><td><div>bootstrap3_inline</div></td></tr><tr><td style="font-weight:bold;vertical-align:top;">generic_patterns</td><td style="vertical-align:top;">:</td><td><div><table><tr><td><div>*</div></td></tr></table></div></td></tr><tr><td style="font-weight:bold;vertical-align:top;">google_analytics_id</td><td style="vertical-align:top;">:</td><td><div>None</div></td></tr><tr><td style="font-weight:bold;vertical-align:top;">headers</td><td style="vertical-align:top;">:</td><td><div><table><tr><td style="font-weight:bold;vertical-align:top;">X-Powered-By</td><td style="vertical-align:top;">:</td><td><div>web2py</div></td></tr></table></div></td></tr><tr><td style="font-weight:bold;vertical-align:top;">logo</td><td style="vertical-align:top;">:</td><td><div><a class="navbar-brand" href="http://www.web2py.com/" id="web2py-logo"><b>Cabshare</b>&trade;&nbsp;</a></div></td></tr><tr><td style="font-weight:bold;vertical-align:top;">menu</td><td style="vertical-align:top;">:</td><td><div><table><tr><td><div><table><tr><td><div>Home</div></td></tr><tr><td><div>False</div></td></tr><tr><td><div>/Cabshare/default/index</div></td></tr><tr><td><div><table></table></div></td></tr></table></div></td></tr><tr><td><div><table><tr><td><div>My Trips</div></td></tr><tr><td><div>False</div></td></tr><tr><td><div>#</div></td></tr><tr><td><div><table><tr><td><div><table><tr><td><div>Pending Trips</div></td></tr><tr><td><div>False</div></td></tr><tr><td><div>/Cabshare/default/PendingTrips</div></td></tr></table></div></td></tr><tr><td><div><table><tr><td><div>Previous Trips</div></td></tr><tr><td><div>False</div></td></tr><tr><td><div>/Cabshare/default/PrevTrips</div></td></tr></table></div></td></tr></table></div></td></tr></table></div></td></tr><tr><td><div><table><tr><td><div>My Profile</div></td></tr><tr><td><div>False</div></td></tr><tr><td><div>/Cabshare/default/myprofile</div></td></tr><tr><td><div><table></table></div></td></tr></table></div></td></tr></table></div></td></tr><tr><td style="font-weight:bold;vertical-align:top;">meta</td><td style="vertical-align:top;">:</td><td><div><table><tr><td style="font-weight:bold;vertical-align:top;">author</td><td style="vertical-align:top;">:</td><td><div>Your Name &lt;you@example.com&gt;</div></td></tr><tr><td style="font-weight:bold;vertical-align:top;">description</td><td style="vertical-align:top;">:</td><td><div>a cool new app</div></td></tr><tr><td style="font-weight:bold;vertical-align:top;">generator</td><td style="vertical-align:top;">:</td><td><div>Web2py Web Framework</div></td></tr><tr><td style="font-weight:bold;vertical-align:top;">keywords</td><td style="vertical-align:top;">:</td><td><div><table><tr><td><div>web2py</div></td></tr><tr><td><div>python</div></td></tr><tr><td><div>framework</div></td></tr></table></div></td></tr></table></div></td></tr><tr><td style="font-weight:bold;vertical-align:top;">models_to_run</td><td style="vertical-align:top;">:</td><td><div><table><tr><td><div>^\\w+\\.py$</div></td></tr><tr><td><div>^default/\\w+\\.py$</div></td></tr><tr><td><div>^default/index/\\w+\\.py$</div></td></tr></table></div></td></tr><tr><td style="font-weight:bold;vertical-align:top;">postprocessing</td><td style="vertical-align:top;">:</td><td><div><table></table></div></td></tr><tr><td style="font-weight:bold;vertical-align:top;">session_client</td><td style="vertical-align:top;">:</td><td><div>127.0.0.1</div></td></tr><tr><td style="font-weight:bold;vertical-align:top;">session_cookie_compression_level</td><td style="vertical-align:top;">:</td><td><div>None</div></td></tr><tr><td style="font-weight:bold;vertical-align:top;">session_cookie_expires</td><td style="vertical-align:top;">:</td><td><div>None</div></td></tr><tr><td style="font-weight:bold;vertical-align:top;">session_data_name</td><td style="vertical-align:top;">:</td><td><div>session_data_cabshare</div></td></tr><tr><td style="font-weight:bold;vertical-align:top;">session_file</td><td style="vertical-align:top;">:</td><td><div>&lt;open file &#x27;/home/krishna/ACADEMICS/SEM(1-2)/ASGN AND QUESTIONS/ITWS-2/PROJECT/V6/PROJECT/web2py/applications/Cabshare/sessions/1f9/1c5/127.0.0.1-3c50027e-129b-4b37-ad8f-2389fc37acc6&#x27;, mode &#x27;rb+&#x27; at 0x7f07261a7780&gt;</div></td></tr><tr><td style="font-weight:bold;vertical-align:top;">session_filename</td><td style="vertical-align:top;">:</td><td><div>/home/krishna/ACADEMICS/SEM(1-2)/ASGN AND QUESTIONS/ITWS-2/PROJECT/V6/PROJECT/web2py/applications/Cabshare/sessions/127.0.0.1-3c50027e-129b-4b37-ad8f-2389fc37acc6</div></td></tr><tr><td style="font-weight:bold;vertical-align:top;">session_hash</td><td style="vertical-align:top;">:</td><td><div>bb2d99c8a1c9500c180758183ee5406d</div></td></tr><tr><td style="font-weight:bold;vertical-align:top;">session_id</td><td style="vertical-align:top;">:</td><td><div>127.0.0.1-3c50027e-129b-4b37-ad8f-2389fc37acc6</div></td></tr><tr><td style="font-weight:bold;vertical-align:top;">session_id_name</td><td style="vertical-align:top;">:</td><td><div>session_id_cabshare</div></td></tr><tr><td style="font-weight:bold;vertical-align:top;">session_locked</td><td style="vertical-align:top;">:</td><td><div>True</div></td></tr><tr><td style="font-weight:bold;vertical-align:top;">session_masterapp</td><td style="vertical-align:top;">:</td><td><div>Cabshare</div></td></tr><tr><td style="font-weight:bold;vertical-align:top;">session_new</td><td style="vertical-align:top;">:</td><td><div>False</div></td></tr><tr><td style="font-weight:bold;vertical-align:top;">session_storage_type</td><td style="vertical-align:top;">:</td><td><div>file</div></td></tr><tr><td style="font-weight:bold;vertical-align:top;">status</td><td style="vertical-align:top;">:</td><td><div>200</div></td></tr><tr><td style="font-weight:bold;vertical-align:top;">subtitle</td><td style="vertical-align:top;">:</td><td><div></div></td></tr><tr><td style="font-weight:bold;vertical-align:top;">title</td><td style="vertical-align:top;">:</td><td><div>Cabshare</div></td></tr><tr><td style="font-weight:bold;vertical-align:top;">view</td><td style="vertical-align:top;">:</td><td><div>default/index.html</div></td></tr></table></div>'
tRp125
sS'locals'
p126
(dp127
S'Service'
p128
S"<class 'gluon.tools.Service'>"
p129
sS'OBJECT'
p130
S"<class 'gluon.html.OBJECT'>"
p131
sS'SQLDB'
p132
S"<class 'pydal.base.DAL'>"
p133
sS'uname'
p134
S"'kartikey'"
p135
sg118
S"<Storage {'_auth_next': None, 'flash': None, 'au...gin]': ['dd7ca68d-801c-46a0-923c-fe676ab9fcde']}>"
p136
sS'LINK'
p137
S"<class 'gluon.html.LINK'>"
p138
sS'BR'
p139
S"<class 'gluon.html.BR'>"
p140
sS'local_import'
p141
S'<function <lambda>>'
p142
sS'OPTGROUP'
p143
S"<class 'gluon.html.OPTGROUP'>"
p144
sS'__package__'
p145
S'None'
p146
sS'dt'
p147
S'[]'
p148
sS'PRE'
p149
S"<class 'gluon.html.PRE'>"
p150
sS'IS_INT_IN_RANGE'
p151
S"<class 'gluon.validators.IS_INT_IN_RANGE'>"
p152
sS'left_sidebar_enabled'
p153
S'False'
p154
sS'IS_LOWER'
p155
S"<class 'gluon.validators.IS_LOWER'>"
p156
sS'IS_STRONG'
p157
S"<class 'gluon.validators.IS_STRONG'>"
p158
sS'tt'
p159
S"['auth_user.Pp.9b4521f4ab44c461.696e6465782e6a706567.jpeg', 'auth_user.Pp.9b4521f4ab44c461.696e6465782e6a706567.jpeg', 'auth_user.Pp.9b4521f4ab44c461.696e6465782e6a706567.jpeg', 'auth_user.Pp.9b4521f4ab44c461.696e6465782e6a706567.jpeg']"
p160
sS'cache'
p161
S'<gluon.cache.Cache object>'
p162
sS'IS_IN_DB'
p163
S"<class 'gluon.validators.IS_IN_DB'>"
p164
sS'TAG'
p165
S'<gluon.html.__TAG__ object>'
p166
sS'SQLField'
p167
S"<class 'pydal.objects.Field'>"
p168
sS'mail'
p169
S'<gluon.tools.Mail object>'
p170
sS'BODY'
p171
S"<class 'gluon.html.BODY'>"
p172
sS'IS_DATE_IN_RANGE'
p173
S"<class 'gluon.validators.IS_DATE_IN_RANGE'>"
p174
sS'IFRAME'
p175
S"<class 'gluon.html.IFRAME'>"
p176
sS'URL'
p177
S'<function URL>'
p178
sS'__file__'
p179
S"'/home/krishna/ACADEMICS/SEM(1-2)/ASGN AND QUESTI...py/applications/Cabshare/views/default/index.html'"
p180
sS'db'
p181
S'<DAL uri="sqlite://storage.sqlite">'
p182
sS'auth'
p183
S'<gluon.tools.Auth object>'
p184
sS'P'
S"<class 'gluon.html.P'>"
p185
sS'qr'
p186
S"<Query (((trip.strid <> 17) AND (trip.total_till...16-04-28') AND (trip.start_up > '13:51:11.8'))))>"
p187
sS'TFOOT'
p188
S"<class 'gluon.html.TFOOT'>"
p189
sS'XHTML'
p190
S"<class 'gluon.html.XHTML'>"
p191
sS'datetime'
p192
S"<module 'datetime' from '/usr/lib64/python2.7/lib-dynload/datetime.so'>"
p193
sS'Trips'
p194
S'<Rows (4)>'
p195
sS'ON'
p196
S'True'
p197
sS'OL'
p198
S"<class 'gluon.html.OL'>"
p199
sS'name'
p200
S"['krishna chaitanya', 'krishna chaitanya', 'krishna chaitanya', 'krishna chaitanya']"
p201
sS'TEXTAREA'
p202
S"<class 'gluon.html.TEXTAREA'>"
p203
sS'MENU'
p204
S"<class 'gluon.html.MENU'>"
p205
sS'form1'
p206
S'<gluon.sqlhtml.SQLFORM object>'
p207
sS'IS_IMAGE'
p208
S"<class 'gluon.validators.IS_IMAGE'>"
p209
sS'EM'
p210
S"<class 'gluon.html.EM'>"
p211
sS'CODE'
p212
S"<class 'gluon.html.CODE'>"
p213
sS'HTTP'
p214
S"<class 'gluon.http.HTTP'>"
p215
sS'HR'
p216
S"<class 'gluon.html.HR'>"
p217
sS'IS_DATETIME'
p218
S"<class 'gluon.validators.IS_DATETIME'>"
p219
sS'STYLE'
p220
S"<class 'gluon.html.STYLE'>"
p221
sS'LABEL'
p222
S"<class 'gluon.html.LABEL'>"
p223
sS'CLEANUP'
p224
S"<class 'gluon.validators.CLEANUP'>"
p225
sS'plugins'
p226
S'<gluon.tools.PluginManager object>'
p227
sS'BUTTON'
p228
S"<class 'gluon.html.BUTTON'>"
p229
sS'SELECT'
p230
S"<class 'gluon.html.SELECT'>"
p231
sS'cnt'
p232
S'1'
sS'CENTER'
p233
S"<class 'gluon.html.CENTER'>"
p234
sS'Auth'
p235
S"<class 'gluon.tools.Auth'>"
p236
sS'COL'
p237
S"<class 'gluon.html.COL'>"
p238
sS'__builtins__'
p239
S"{'ArithmeticError': <type 'exceptions.ArithmeticError'>, 'AssertionError': <type 'exceptions.AssertionError'>, 'AttributeError': <type 'exceptions.AttributeError'>, 'BaseException': <type 'exceptions.BaseException'>, 'BufferError': <type 'exceptions.BufferError'>, 'BytesWarning': <type 'exceptions.BytesWarning'>, 'DeprecationWarning': <type 'exceptions.DeprecationWarning'>, 'EOFError': <type 'exceptions.EOFError'>, 'Ellipsis': Ellipsis, 'EnvironmentError': <type 'exceptions.EnvironmentError'>, ...}"
p240
sS'HTML'
p241
S"<class 'gluon.html.HTML'>"
p242
sS'SQLFORM'
p243
S"<class 'gluon.sqlhtml.SQLFORM'>"
p244
sS'nans'
p245
S'<Rows (4)>'
p246
sS'LOAD'
p247
S'<function LOAD>'
p248
sS'redirect'
p249
S'<function redirect>'
p250
sS'FIELDSET'
p251
S"<class 'gluon.html.FIELDSET'>"
p252
sS'IS_EQUAL_TO'
p253
S"<class 'gluon.validators.IS_EQUAL_TO'>"
p254
sS'embed64'
p255
S'<function embed64>'
p256
sS'IS_LIST_OF'
p257
S"<class 'gluon.validators.IS_LIST_OF'>"
p258
sS'__name__'
p259
S"'__restricted__'"
p260
sS'EMBED'
p261
S"<class 'gluon.html.EMBED'>"
p262
sS'mans'
p263
S'<Rows (0)>'
p264
sS'myconf'
p265
S"{'forms': {'formstyle': 'bootstrap3_inline', 'se...': {'names': 'localhost:*, 127.0.0.1:*, *:*, *'}}"
p266
sS'pageno'
p267
S'0'
sS'IS_NOT_IN_DB'
p268
S"<class 'gluon.validators.IS_NOT_IN_DB'>"
p269
sS'H2'
p270
S"<class 'gluon.html.H2'>"
p271
sS'H3'
p272
S"<class 'gluon.html.H3'>"
p273
sS'AppConfig'
p274
S'<function AppConfig>'
p275
sS'H1'
p276
S"<class 'gluon.html.H1'>"
p277
sS'H6'
p278
S"<class 'gluon.html.H6'>"
p279
sS'ids'
p280
S'[2L, 2L, 2L, 2L]'
p281
sS'H4'
p282
S"<class 'gluon.html.H4'>"
p283
sS'H5'
p284
S"<class 'gluon.html.H5'>"
p285
sS'UL'
p286
S"<class 'gluon.html.UL'>"
p287
sS'IS_UPPER'
p288
S"<class 'gluon.validators.IS_UPPER'>"
p289
sS'xmlescape'
p290
S'<function xmlescape>'
p291
sS'IS_TIME'
p292
S"<class 'gluon.validators.IS_TIME'>"
p293
sS'OPTION'
p294
S"<class 'gluon.html.OPTION'>"
p295
sS'TITLE'
p296
S"<class 'gluon.html.TITLE'>"
p297
sS'CRYPT'
p298
S"<class 'gluon.validators.CRYPT'>"
p299
sS'IS_EMPTY_OR'
p300
S"<class 'gluon.validators.IS_EMPTY_OR'>"
p301
sS'MARKMIN'
p302
S"<class 'gluon.html.MARKMIN'>"
p303
sS'qrr'
p304
S'<Query (auth_user.id = 2)>'
p305
sS'froms'
p306
S"['secunderabad', 'AIRPORT', 'steel plant', 'tolichowki']"
p307
sS'INPUT'
p308
S"<class 'gluon.html.INPUT'>"
p309
sS'STRONG'
p310
S"<class 'gluon.html.STRONG'>"
p311
sS'mc2'
p312
S"'col-md-6'"
p313
sS'mc1'
p314
S"'col-md-9'"
p315
sS'mc0'
p316
S"'col-md-12'"
p317
sS'reqdate'
p318
S'datetime.date(2016, 4, 27)'
p319
sS'service'
p320
S'<gluon.tools.Service object>'
p321
sS'SCRIPT'
p322
S"<class 'gluon.html.SCRIPT'>"
p323
sS'tos'
p324
S"['secunderabad', 'lingampalli', 'bus-depo', 'IIIT']"
p325
sS'tm'
p326
S'[]'
p327
sS'usr'
p328
S"'kartikey'"
p329
sS'TABLE'
p330
S"<class 'gluon.html.TABLE'>"
p331
sS'IS_IPV4'
p332
S"<class 'gluon.validators.IS_IPV4'>"
p333
sS'IS_LENGTH'
p334
S"<class 'gluon.validators.IS_LENGTH'>"
p335
sS'IS_IPV6'
p336
S"<class 'gluon.validators.IS_IPV6'>"
p337
sS'XML'
p338
S"<class 'gluon.html.XML'>"
p339
sS'B'
S"<class 'gluon.html.B'>"
p340
sS'IMG'
p341
S"<class 'gluon.html.IMG'>"
p342
sS'COUNTRIES'
p343
S"('United States', 'Afghanistan', 'Albania', 'Algeria', 'Andorra', 'Angola', 'Antigua and Barbuda', 'Argentina', 'Armenia', 'Australia', 'Austria', 'Azerbaijan', 'Bahamas', 'Bahrain', 'Bangladesh', 'Barbados', 'Belarus', 'Belgium', 'Belize', 'Benin', ...)"
p344
sS'SQLTABLE'
p345
S"<class 'gluon.sqlhtml.SQLTABLE'>"
p346
sS'IS_MATCH'
p347
S"<class 'gluon.validators.IS_MATCH'>"
p348
sS'IS_ALPHANUMERIC'
p349
S"<class 'gluon.validators.IS_ALPHANUMERIC'>"
p350
sS'DIET'
p351
S"('Vegetarian', 'Non-vegetarian', 'Eggetarian')"
p352
sS'flag'
p353
S'<Rows (0)>'
p354
sS'SPAN'
p355
S"<class 'gluon.html.SPAN'>"
p356
sS'IS_JSON'
p357
S"<class 'gluon.validators.IS_JSON'>"
p358
sS'IS_IPADDRESS'
p359
S"<class 'gluon.validators.IS_IPADDRESS'>"
p360
sS'mn'
p361
S'[]'
p362
sS'IS_SLUG'
p363
S"<class 'gluon.validators.IS_SLUG'>"
p364
sS'BEAUTIFY'
p365
S"<class 'gluon.html.BEAUTIFY'>"
p366
sS'META'
p367
S"<class 'gluon.html.META'>"
p368
sS'k'
S"<Row {'status': True, 'tripid': 6L, 'flag_of': N....', 'send_id': 2L, 'no_of': None, 'type_of': 2L}>"
p369
sS'nqr'
p370
S'<Query (notification.rec_id = 17)>'
p371
sS'IS_DATE'
p372
S"<class 'gluon.validators.IS_DATE'>"
p373
sS'IS_EMAIL'
p374
S"<class 'gluon.validators.IS_EMAIL'>"
p375
sS'middle_column'
p376
S"'col-md-12'"
p377
sS'IS_NOT_EMPTY'
p378
S"<class 'gluon.validators.IS_NOT_EMPTY'>"
p379
sS'IS_FLOAT_IN_RANGE'
p380
S"<class 'gluon.validators.IS_FLOAT_IN_RANGE'>"
p381
sS'j'
S"<Row {'status': False, 'tripid': 6L, 'flag_of': ...ack', 'send_id': 2L, 'no_of': 0L, 'type_of': 3L}>"
p382
sS'TBODY'
p383
S"<class 'gluon.html.TBODY'>"
p384
sS'CAT'
p385
S"<class 'gluon.html.CAT'>"
p386
sS'Field'
p387
S"<class 'pydal.objects.Field'>"
p388
sS'mqr'
p389
S'<Query (personal_message.rec_id = 17)>'
p390
sS'IS_LIST_OF_EMAILS'
p391
S"<class 'gluon.validators.IS_LIST_OF_EMAILS'>"
p392
sS'DIV'
p393
S"<class 'gluon.html.DIV'>"
p394
sS'LEGEND'
p395
S"<class 'gluon.html.LEGEND'>"
p396
sS'form'
p397
S'<gluon.sqlhtml.SQLFORM object>'
p398
sS'COLGROUP'
p399
S"<class 'gluon.html.COLGROUP'>"
p400
sS'DAL'
p401
S"<class 'pydal.base.DAL'>"
p402
sS'ASSIGNJS'
p403
S'<function ASSIGNJS>'
p404
sS'TR'
p405
S"<class 'gluon.html.TR'>"
p406
sS'LI'
p407
S"<class 'gluon.html.LI'>"
p408
sS'right_sidebar_enabled'
p409
g154
sS'TH'
p410
S"<class 'gluon.html.TH'>"
p411
sS'TD'
p412
S"<class 'gluon.html.TD'>"
p413
sS'PluginManager'
p414
S"<class 'gluon.tools.PluginManager'>"
p415
sS'IS_URL'
p416
S"<class 'gluon.validators.IS_URL'>"
p417
sS'A'
S"<class 'gluon.html.A'>"
p418
sS'HEAD'
p419
S"<class 'gluon.html.HEAD'>"
p420
sS'IS_DATETIME_IN_RANGE'
p421
S"<class 'gluon.validators.IS_DATETIME_IN_RANGE'>"
p422
sS'FORM'
p423
S"<class 'gluon.html.FORM'>"
p424
sS'I'
S"<class 'gluon.html.I'>"
p425
sS'fa'
p426
S'<Rows (4)>'
p427
sg124
S"<Storage {'body': <cStringIO.StringO object at 0...t 0x7f07261bb050>, 'view': 'default/index.html'}>"
p428
sS'THEAD'
p429
S"<class 'gluon.html.THEAD'>"
p430
sS'ANY_OF'
p431
S"<class 'gluon.validators.ANY_OF'>"
p432
sS'IS_NULL_OR'
p433
S"<class 'gluon.validators.IS_EMPTY_OR'>"
p434
sS'i'
S"'IIIT'"
p435
sg56
S"<Storage {'_vars': <Storage {}>, 'function': 'in...OJECT/V6/PROJECT/web2py/applications/Cabshare/'}>"
p436
sS'IS_EXPR'
p437
S"<class 'gluon.validators.IS_EXPR'>"
p438
sS'T'
S'<gluon.languages.translator object>'
p439
sS'IS_IN_SET'
p440
S"<class 'gluon.validators.IS_IN_SET'>"
p441
sS'IS_UPLOAD_FILENAME'
p442
S"<class 'gluon.validators.IS_UPLOAD_FILENAME'>"
p443
sS'TT'
p444
S"<class 'gluon.html.TT'>"
p445
sS'IS_DECIMAL_IN_RANGE'
p446
S"<class 'gluon.validators.IS_DECIMAL_IN_RANGE'>"
p447
sssS'traceback'
p448
S'Traceback (most recent call last):\n  File "/home/krishna/ACADEMICS/SEM(1-2)/ASGN AND QUESTIONS/ITWS-2/PROJECT/V6/PROJECT/web2py/gluon/restricted.py", line 227, in restricted\n    exec ccode in environment\n  File "/home/krishna/ACADEMICS/SEM(1-2)/ASGN AND QUESTIONS/ITWS-2/PROJECT/V6/PROJECT/web2py/applications/Cabshare/views/default/index.html", line 105, in <module>\n    overflow: scroll;\nNameError: name \'feedback\' is not defined\n'
p449
s.