(dp1
S'output'
p2
S"<type 'exceptions.AttributeError'> 'Table' object has no attribute 'voteerid'"
p3
sS'layer'
p4
S'/home/krishna/ACADEMICS/SEM(1-2)/ASGN AND QUESTIONS/ITWS-2/PROJECT/V5/PROJECT/web2py/applications/Cabshare/views/default/fill_feedback.html'
p5
sS'code'
p6
S'response.write(\'<!DOCTYPE html>\\n<!--[if (gt IE 9)|!(IE)]><!--> <html class="no-js" lang="\', escape=False)\nresponse.write(T.accepted_language or \'en\')\nresponse.write(\'"> <!--<![endif]-->\\n  <head>\\n    <meta charset="utf-8">\\n    <!-- www.phpied.com/conditional-comments-block-downloads/ -->\\n    <!-- Always force latest IE rendering engine\\n         (even in intranet) & Chrome Frame\\n         Remove this if you use the .htaccess -->\\n    <meta http-equiv="X-UA-Compatible" content="IE=edge\', escape=False)\nresponse.write(not request.is_local and \',chrome=1\' or \'\')\nresponse.write(\'">\\n    <!--  Mobile Viewport Fix\\n          j.mp/mobileviewport & davidbcalhoun.com/2010/viewport-metatag\\n          device-width: Occupy full width of the screen in its current orientation\\n          initial-scale = 1.0 retains dimensions instead of zooming out if page height > device height\\n          user-scalable = yes allows the user to zoom in -->\\n    <meta name="viewport" content="width=device-width, initial-scale=1.0">\\n    <title>\', escape=False)\nresponse.write(response.title or request.application)\nresponse.write(\'</title>\\n    <!-- http://dev.w3.org/html5/markup/meta.name.html -->\\n    <meta name="application-name" content="\', escape=False)\nresponse.write(request.application)\nresponse.write(\'">\\n    <!-- Speaking of Google, don\\\'t forget to set your site up:\\n         http://google.com/webmasters -->\\n    <meta name="google-site-verification" content="">\\n    <!-- include stylesheets -->\\n    <link rel="stylesheet" href="\', escape=False)\nresponse.write(URL(\'static\',\'css/bootstrap.min.css\'))\nresponse.write(\'"/>\\n    <link rel="stylesheet" href="\', escape=False)\nresponse.write(URL(\'static\',\'css/web2py-bootstrap3.css\'))\nresponse.write(\'"/>\\n    <link rel="shortcut icon" href="\', escape=False)\nresponse.write(URL(\'static\',\'images/favicon.ico\'))\nresponse.write(\'" type="image/x-icon">\\n    <link rel="apple-touch-icon" href="\', escape=False)\nresponse.write(URL(\'static\',\'images/favicon.png\'))\nresponse.write(\'">\\n    <!-- All JavaScript at the bottom, except for Modernizr which enables\\n         HTML5 elements & feature detects -->\\n    <script src="\', escape=False)\nresponse.write(URL(\'static\',\'js/modernizr-2.8.3.min.js\'))\nresponse.write(\'"></script>\\n    <!--[if lt IE 9]>\\n        <script src="\', escape=False)\nresponse.write(URL(\'static\',\'js/respond-1.4.2.min.js\'))\nresponse.write(\'"></script>\\n        <![endif]-->\\n    <!-- Favicons -->\\n    \', escape=False)\nresponse.write(\'<script type="text/javascript"><!--\\n    // These variables are used by the web2py_ajax_init function in web2py_ajax.js (which is loaded below).\\n    var w2p_ajax_confirm_message = "\', escape=False)\nresponse.write(T(\'Are you sure you want to delete this object?\'))\nresponse.write(\'";\\n    var w2p_ajax_disable_with_message = "\', escape=False)\nresponse.write(T(\'Working...\'))\nresponse.write(\'";\\n    var w2p_ajax_date_format = "\', escape=False)\nresponse.write(T(\'%Y-%m-%d\'))\nresponse.write(\'";\\n    var w2p_ajax_datetime_format = "\', escape=False)\nresponse.write(T(\'%Y-%m-%d %H:%M:%S\'))\nresponse.write(\'";\\n    var ajax_error_500 = \\\'\', escape=False)\nresponse.write(T.M(\'An error occured, please [[reload %s]] the page\') % URL(args=request.args, vars=request.get_vars))\nresponse.write("\'\\n    //--></script>\\n", escape=False)\nresponse.files.insert(0,URL(\'static\',\'js/jquery.js\'))\nresponse.files.insert(1,URL(\'static\',\'css/calendar.css\'))\nresponse.files.insert(2,URL(\'static\',\'js/calendar.js\'))\nresponse.files.insert(3,URL(\'static\',\'js/web2py.js\'))\nresponse.include_meta()\nresponse.include_files()\nresponse.write(\'\\n\', escape=False)\nresponse.write(\' <!-- this includes jquery.js, calendar.js/.css and web2py.js -->\\n    \', escape=False)\nresponse.write(\'\\n    \', escape=False)\n# using sidebars need to know what sidebar you want to use\nmc0 = \'col-md-12\'\nmc1 = \'col-md-9\'\nmc2 = \'col-md-6\'\nleft_sidebar_enabled = globals().get(\'left_sidebar_enabled\', False)\nright_sidebar_enabled = globals().get(\'right_sidebar_enabled\', False)\nmiddle_column = {0: mc0, 1: mc1, 2: mc2}[\n(left_sidebar_enabled and 1 or 0)+(right_sidebar_enabled and 1 or 0)]\nresponse.write(\'\\n  </head>\\n  <body>\\n    <!--[if lt IE 8]><p class="browserupgrade">You are using an <strong>outdated</strong> browser. Please <a href="http://browsehappy.com/">upgrade your browser</a> to improve your experience.</p><![endif]-->\\n    <div class="w2p_flash alert alert-dismissable">\', escape=False)\nresponse.write(response.flash or \'\')\nresponse.write(\'</div>\\n    <!-- Navbar ======================================= -->\\n    <nav class="navbar navbar-default navbar-fixed-top" role="navigation">\\n      <div class="container-fluid">\\n        <div class="navbar-header">\\n          <button type="button" class="navbar-toggle" data-toggle="collapse" data-target=".navbar-collapse">\\n            <span class="sr-only">Toggle navigation</span>\\n            <span class="icon-bar"></span>\\n            <span class="icon-bar"></span>\\n            <span class="icon-bar"></span>\\n          </button>\\n          \', escape=False)\nresponse.write(response.logo or \'\')\nresponse.write(\'\\n        </div>\\n        <div class="collapse navbar-collapse navbar-ex1-collapse">\\n          <ul class="nav navbar-nav navbar-right">\\n            \', escape=False)\nresponse.write(\'auth\' in globals() and auth.navbar(\'Welcome\',mode=\'dropdown\') or \'\')\nresponse.write(\'\\n          </ul>\\n          \', escape=False)\nif response.menu:\n    response.write(\'\\n          \', escape=False)\n    response.write(MENU(response.menu, _class=\'nav navbar-nav\',li_class=\'dropdown\',ul_class=\'dropdown-menu\'))\n    response.write(\'\\n          \', escape=False)\n    pass\nresponse.write(\'\\n        </div>\\n      </div>\\n    </nav>\\n      <style>\\n           .navbar{\\n        margin-left:120px;\\n        display: block;\\n        width: 150px;\\n        height: 900px;\\n\\t   background: #ffff80;\\n\\t   color : white;\\n    }\\n      </style>\\n    <!-- Masthead ===================================== -->    \\n    \', escape=False)\nresponse.write(\'\\n    \', escape=False)\nresponse.write(\'\\n    <!-- Main ========================================= -->\\n    <!-- Begin page content -->\\n    <div class="container-fluid main-container">\\n      \', escape=False)\nif left_sidebar_enabled:\n    response.write(\'\\n        <div class="col-md-3 left-sidebar">\\n            \', escape=False)\n    response.write(\'\\n            <h3>Left Sidebar</h3>\\n            <p></p>\\n            \', escape=False)\n    response.write(\'\\n        </div>\\n      \', escape=False)\n    pass\nresponse.write(\'\\n\\n      <div class="\', escape=False)\nresponse.write(middle_column)\nresponse.write(\'">\\n        \', escape=False)\nresponse.write(\'\\n        \', escape=False)\nresponse.write(\'\\n\\n<div id="Home">\\n<h1>Please give your valuable feedback about the trip</h1>\\n<h4>Hope you had a nice trip</h4>\\n<h4> The trip was started by \', escape=False)\nresponse.write(db.auth_user(db.auth_user.id == main).first_name)\nresponse.write(\' and the trip happened on \', escape=False)\nresponse.write(db.trip(db.trip.id == tid).date_of_trip)\nresponse.write(\'\\n  <div id="yesno">\\n    \', escape=False)\ncnt=0\nresponse.write(\'\\n    \', escape=False)\nif main!=auth.user_id and db( (db.voting.voteerid==auth.user_id)& (db.voting.candid==main) & (db.voting.tripid==tid) ).select() is None:\n    response.write(\'\\n    \', escape=False)\n    cnt=cnt+1\n    response.write(\'\\n  <p>Feedback about \', escape=False)\n    response.write(db.auth_user(db.auth_user.id==main).first_name)\n    response.write(\'</p>\\n  <button class="yes" onclick="yes(\\\'\', escape=False)\n    response.write(db.auth_user(db.auth_user.id==main).first_name)\n    response.write("\',", escape=False)\n    response.write(main)\n    response.write(\')" id="y\', escape=False)\n    response.write(cnt)\n    response.write(\'">YES</button>  <button class="no" onclick="no()" id="n\', escape=False)\n    response.write(cnt)\n    response.write(\'">NO</button>\\n  \', escape=False)\n    pass\nresponse.write(\'\\n  \', escape=False)\nfor j in others:\n    response.write(\'\\n  \', escape=False)\n    if j.id!=auth.user_id and db( (db.voting.voteerid==auth.user_id)& (db.voting.candid==j.id) & (db.voting.tripid==tid) ).select() is None:\n        response.write(\'\\n  \', escape=False)\n        cnt=cnt+1\n        response.write(\'\\n  <p>Feedback about\', escape=False)\n        response.write(db.auth_user(db.auth_user.id==j.userid).first_name)\n        response.write(\'</p>\\n  <button class="yes" onclick="yes(\\\'\', escape=False)\n        response.write(db.auth_user(db.auth_user.id==j.userid).first_name)\n        response.write("\',", escape=False)\n        response.write(j.id)\n        response.write(\')" id="y\', escape=False)\n        response.write(cnt)\n        response.write(\'">YES</button>\\n  <button class="no" onclick="no()" id="n\', escape=False)\n        response.write(cnt)\n        response.write(\'">NO</button>\\n  \', escape=False)\n        pass\n    response.write(\'\\n  \', escape=False)\n    pass\nresponse.write(\'\\n  </div>\\n  <div id="display">\\n    <form id="norm">\\n      <h4 id="name"></h4>\\n      Comments<br>\\n      <textarea name="cmt" cols=40 rows=5></textarea><br>\\n      <input type="radio" name="rating" value="5">\\n      \', escape=False)\nfor j in range(0,5):\n    response.write(\'\\n      <img src=\', escape=False)\n    response.write(URL(\'static\',\'images\',args="star.jpg"))\n    response.write(\' alt=* height="15em" width="15em">\', escape=False)\n    pass\nresponse.write(\'<br>\\n      <input type="radio" name="rating" value="4">      \', escape=False)\nfor j in range(0,4):\n    response.write(\'\\n      <img src=\', escape=False)\n    response.write(URL(\'static\',\'images\',args="star.jpg"))\n    response.write(\' alt=* height="15em" width="15em">\', escape=False)\n    pass\nresponse.write(\'<br>\\n      <input type="radio" name="rating" value="3">      \', escape=False)\nfor j in range(0,3):\n    response.write(\'\\n      <img src=\', escape=False)\n    response.write(URL(\'static\',\'images\',args="star.jpg"))\n    response.write(\' alt=* height="15em" width="15em">\', escape=False)\n    pass\nresponse.write(\'<br>\\n      <input type="radio" name="rating" value="2">      \', escape=False)\nfor j in range(0,2):\n    response.write(\'\\n      <img src=\', escape=False)\n    response.write(URL(\'static\',\'images\',args="star.jpg"))\n    response.write(\' alt=* height="15em" width="15em">\', escape=False)\n    pass\nresponse.write(\'<br>\\n      <input type="radio" name="rating" value="1">      \', escape=False)\nfor j in range(0,1):\n    response.write(\'\\n      <img src=\', escape=False)\n    response.write(URL(\'static\',\'images\',args="star.jpg"))\n    response.write(\' alt=* height="15em" width="15em">\', escape=False)\n    pass\nresponse.write(\'<br>\\n      <input style="visibility: hidden;" id="dummy">\\n      <input style="visibility: hidden;" id="tid" value="\', escape=False)\nresponse.write(tid)\nresponse.write(\'">\\n      <input type="submit" value="Rate" onclick="finish(\', escape=False)\nresponse.write(cnt)\nresponse.write(\')" >\\n      </form>\\n  </div>\\n</div>\\n\\n<style>\\n           #Home{\\n        margin-top:-100px;\\n        margin-left:241px;\\n      margin-right:120px;\\n\\t   background: #99ff99;\\n\\t   height: 42.3em;\\n\\t   overflow:scroll;\\n\\t   }\\n\\n\\t   #norm{\\n\\t   float: right;\\n\\t   width: 50%;\\n\\t   margin-top: 8em;\\n\\t   visibility: hidden;\\n\\t   }\\n\\t   #yesno{\\n\\t   float: left;\\n\\t   width: 40%;\\n\\t   }\\n\\n</style>\\n\\n<script>\\n  function yes(x,y)\\n  {\\n  document.getElementById(\\\'norm\\\').style.visibility="visible";\\n  document.getElementById(\\\'name\\\').innerHTML = x +"\\\'s Feedback";\\n  document.getElementById(\\\'dummy\\\').value = y;\\n  }\\n  function no()\\n  {\\n  \\n\\n  }\\n  function finish(x)\\n  {\\n  ajax(\\\'\', escape=False)\nresponse.write(URL(\'default\',\'form_feed\',args=1))\nresponse.write(\'\\\',[\\\'tid\\\',\\\'cmt\\\',\\\'rating\\\',\\\'dummy\\\'],\\\'death\\\')\\n  document.getElementById(\\\'norm\\\').style.visibility="hidden";\\n  id1 = "y" + x;\\n  id2 = "n" + x;\\n  document.getElementById(id1).style.visibility="hidden";\\n  document.getElementById(id2).style.visibility="hidden";\\n  }\\n  \\n</script>\\n\', escape=False)\nresponse.write(\'\\n        \', escape=False)\nresponse.write(\'\\n      </div>\\n\\n      \', escape=False)\nif right_sidebar_enabled:\n    response.write(\'\\n        <div class="col-md-3">\\n            \', escape=False)\n    response.write(\'\\n            <h3>Right Sidebar</h3>\\n            <p></p>\\n            \', escape=False)\n    response.write(\'\\n        </div>\\n      \', escape=False)\n    pass\nresponse.write(\'\\n\\n    </div>\\n\\n    \', escape=False)\nresponse.write(\' <!-- this is default footer -->      \\n    <footer class="footer">\\n      <div class="container-fluid">\\n        <div class="copyright pull-left">\', escape=False)\nresponse.write(T(\'NoCopyright\'))\nresponse.write(\' &#169; \', escape=False)\nresponse.write(request.now.year)\nresponse.write(\'</div>\\n          <div id="poweredBy" class="pull-right">\\n            \', escape=False)\nresponse.write(T(\'Powered by\'))\nresponse.write(\'\\n            <a href="http://www.iiit.ac.in/">IIIT-H</a>\\n          </div>\\n      </div>\\n    </footer>\\n      <style>\\n           .footer{\\n        margin-left:270px;\\n           width:945px;\\n\\t   background: #ffff80;\\n\\t   color : white;\\n\\t   posotion: relative;\\n\\t   bottom: 0px;\\n    }\\n      </style>\\n    \', escape=False)\nresponse.write(\'\\n    <!-- The javascript =============================== -->\\n    <script src="\', escape=False)\nresponse.write(URL(\'static\',\'js/bootstrap.min.js\'))\nresponse.write(\'"></script>\\n    <script src="\', escape=False)\nresponse.write(URL(\'static\',\'js/web2py-bootstrap3.js\'))\nresponse.write(\'"></script>\\n    \', escape=False)\nresponse.write(\'\\n    \', escape=False)\nif response.google_analytics_id:\n    response.write(\'\\n    <!-- Analytics ==================================== -->\\n    <script src="\', escape=False)\n    response.write(URL(\'static\',\'js/analytics.min.js\'))\n    response.write(\'"></script>\\n    <script type="text/javascript">\\n      analytics.initialize({\\n      \\\'Google Analytics\\\':{trackingId:\\\'\', escape=False)\n    response.write(response.google_analytics_id)\n    response.write("\'}\\n      });\\n    </script>\\n    ", escape=False)\n    pass\nresponse.write(\'\\n    <!-- Share ============================y============ -->\\n    <script src="\', escape=False)\nresponse.write(URL(\'static\',\'js/share.js\',vars=dict(static=URL(\'static\',\'images\'))))\nresponse.write(\'"></script>\\n  </body>\\n</html>\\n\', escape=False)'
p7
sS'snapshot'
p8
(dp9
sS'traceback'
p10
S'Traceback (most recent call last):\n  File "/home/krishna/ACADEMICS/SEM(1-2)/ASGN AND QUESTIONS/ITWS-2/PROJECT/V5/PROJECT/web2py/gluon/restricted.py", line 227, in restricted\n    exec ccode in environment\n  File "/home/krishna/ACADEMICS/SEM(1-2)/ASGN AND QUESTIONS/ITWS-2/PROJECT/V5/PROJECT/web2py/applications/Cabshare/views/default/fill_feedback.html", line 99, in <module>\nAttributeError: \'Table\' object has no attribute \'voteerid\'\n'
p11
s.