(dp1
S'output'
p2
S"<type 'exceptions.SyntaxError'> 'return' outside function (default.py, line 115)"
p3
sS'layer'
p4
S'/home/krishna/ACADEMICS/SEM(1-2)/ASGN AND QUESTIONS/ITWS-2/PROJECT/V5/PROJECT/web2py/applications/Cabshare/controllers/default.py'
p5
sS'code'
p6
S'# -*- coding: utf-8 -*-\n# this file is released under public domain and you can use without limitations\n\n#########################################################################\n## This is a sample controller\n## - index is the default action of any application\n## - user is required for authentication and authorization\n## - download is for downloading files uploaded in the db (does streaming)\n#########################################################################\nimport datetime\n@auth.requires_login()\ndef index():\n    reqdate=(datetime.datetime.now() - datetime.timedelta(days=1)).date()\n    flag=db((db.trip.date_of_trip==reqdate) & (db.notification.tripid==db.trip.id) & (db.notification.type_of==3)).select()\n    if len(flag)==0:\n        flag=db(db.trip.date_of_trip==reqdate).select()\n        for i in flag:\n            flag1=db(db.passenger.tripid==i.id).select()\n            for j in flag1:\n                db.notification.insert(send_id=i.strid,rec_id=j.userid,tripid=i.id,msg="Please give feedback",date_of=datetime.date.today(),time_of=datetime.datetime.now().time(),type_of=3,status=0,flag_of=0,no_of=0)\n    form  = SQLFORM(db.trip)\n    if form.process().accepted: \n        #Updating the the till now parameters.\n        ppl = form.vars.people_start;\n        bags  = form.vars.bags_start;\n        currid = form.vars.id;\n        tmp = db.trip(db.trip.id == currid)\n        tmp.update_record(total_tillnow=ppl,bags_till_now=bags)\n        #Updating the number of trips for the user.\n        qr = db.auth_user.id==auth.user_id;\n        nt = 1 + int(db.auth_user(qr).trips_no);\n        db.auth_user(qr).update_record(trips_no=nt);\n        response.flash = T("Your trip has been registered")\n    elif form.errors:\n        response.flash = T("Trip details have errors")\n    """\n    example action using the internationalization operator T and flash\n    rendered by views/default/index.html or views/generic.html\n\n    if you need a simple wiki simply replace the two lines below with:\n    return auth.wiki()\n    """\n    form1 = SQLFORM.factory(Field(\'fro\',\'string\',label=\'From\',requires=IS_NOT_EMPTY(),widget=SQLFORM.widgets.autocomplete(\nrequest, db.froms.place, limitby=(0,10), min_length=1)),\n                          Field(\'to\',\'string\',requires=IS_NOT_EMPTY(),widget=SQLFORM.widgets.autocomplete(\nrequest, db.tos.place, limitby=(0,10), min_length=1)),\n                          Field(\'Date\',\'date\',requires=IS_NOT_EMPTY()),\n                          Field(\'Passengers\',\'integer\',requires=IS_NOT_EMPTY()))\n    if form1.process().accepted:\n        redirect(URL(\'after_search\',args=[form1.vars.fro,form1.vars.to,form1.vars.Date,form1.vars.Passengers]))\n    elif form1.process().errors:\n        response.flash="Errors in search query"\n    ###The form porion of the code is done and now the main elements.\n    ###This is the function to display the home page.\n    ###1)Various trips,2)Notifications,3)Messages from other users.\n    ###1)Various trips code.\n    uname = db.auth_user(db.auth_user.id == auth.user_id).first_name\n    response.flash = T("Cabshare Welcomes you!!!!")\n    db(db.froms.id>0).delete()\n    db(db.tos.id>0).delete()\n    qr = (db.trip.strid!=auth.user_id) & (db.trip.total_tillnow < db.trip.max_people) & ((db.trip.date_of_trip > datetime.date.today()) | ((db.trip.date_of_trip==datetime.date.today()) & (db.trip.start_up > datetime.datetime.now().time())))\n    fa = db(qr).select(db.trip.from_place,db.trip.to_place)\n    froms=[]\n    tos=[]\n    for i in fa:\n        froms+=[i.from_place]\n        tos+=[i.to_place]\n    froms = list(set(froms))\n    tos = list(set(tos))\n    for i in froms:\n        db.froms.insert(place=i)\n    for i in tos:\n        db.tos.insert(place=i)\n    if len(request.args)>0:\n        pageno=int(request.args[0])\n    else:\n        pageno=0\n    Trips=db(qr).select(db.trip.ALL,limitby=(7*pageno,7*(pageno+1)+1))\n    ###The code for the trips is done here.\n    ###2) Notifications bar\n    nqr = db.notification.rec_id == auth.user_id\n    nans = db(nqr).select(orderby=db.notification.status|~db.notification.time_of)\n    tt=[]\n    name=[]\n    ids=[]\n    ###make the status one when he visits the page. \n    for k in nans:\n        qrr = db.auth_user.id == k.send_id\n        tt+=[db.auth_user(qrr).Pp]\n        name+=[db.auth_user(qrr).first_name]\n        ids+=[db.auth_user(qrr).id]\n    ###The notification related code ends here.\n    ###The messages code.\n    mqr = db.personal_message.rec_id == auth.user_id\n    mans = db(mqr).select()\n    mn=[];tm=[];dt=[]\n    #for j in mans:\n    ###The message code is done.\n    return locals()\n\n###This is a function to render the feedback form and get feedback.\ndef fill_feedback():\n    tid = request.args(0,cast=int)\n    qr = db.trip.id == tid\n    trip = db.trip(qr)\n    main = trip.strid\n    others  = db(db.passenger.tripid==tid).select()\n    num = trip.total_tillnow\n    return locals()\n###This is a background Java-script function to accept and reject feedback and to create notifications with regard to it.\ndef form_feed():\n    #For filled feedback.\n    k = request.args(0,cast=int)\n    db.voting.insert(voterid=auth.user_id,candid=cid,tripid=tid,time_of=datetime.datetime.now().time(),date_of=datetime.date.today(),rating=form.vars.rating,comm=form.vars.comm,fill_status=1)\nreturn locals()\n###This is if the form is rejected.\ndef nofeed():\n    return locals()\n\n###This is a page to display the feedback given by others for a trip.\ndef view_feedback():\n    return locals()\n\n###Just a simple page to show all the notifications in separate page.\ndef ntf():\n    nqr = db.notification.rec_id == auth.user_id\n    if len(request.args)>0:\n        pageno=int(request.args[0])\n    else:\n        pageno=0\n    nans = db(nqr).select(limitby=(pageno*7,(pageno+1)*7+1),orderby=~db.notification.status|~db.notification.time_of)\n    tt=[];name=[];ids=[]\n    for k in nans:\n        qrr = db.auth_user.id == k.send_id\n        tt+=[ db.auth_user(qrr).Pp]\n        name+=[db.auth_user(qrr).first_name]\n        ids+=[db.auth_user(qrr).id]\n    return locals()\n\n###This is a simple function called by ajax to just change the status of the notifiacation.\ndef nvis():\n    #print "hi" + request.args[0] \n    nid = request.args(0,cast=int)\n    qr = db.notification.id == nid\n    db.notification(qr).update_record(status=1)\n    #print "hello"\n    return locals()\n\n\n###Theese are the functions by default...\ndef user():\n    """\n    exposes:\n    http://..../[app]/default/user/login\n    http://..../[app]/default/user/logout\n    http://..../[app]/default/user/register\n    http://..../[app]/default/user/profile\n    http://..../[app]/default/user/retrieve_password\n    http://..../[app]/default/user/change_password\n    http://..../[app]/default/user/bulk_register\n    use @auth.requires_login()\n        @auth.requires_membership(\'group name\')\n        @auth.requires_permission(\'read\',\'table name\',record_id)\n    to decorate functions that need access control\n    also notice there is http://..../[app]/appadmin/manage/auth to allow administrator to manage users\n    """\n    return dict(form=auth())\n\n\n@cache.action()\ndef download():\n    """\n    allows downloading of uploaded files\n    http://..../[app]/default/download/[filename]\n    """\n    return response.download(request, db)\n\n\ndef call():\n    """\n    exposes services. for example:\n    http://..../[app]/default/call/jsonrpc\n    decorate with @services.jsonrpc the functions to expose\n    supports xml, json, xmlrpc, jsonrpc, amfrpc, rss, csv\n    """\n    return service()\n\n###A function to manage the users.\n#def manage():\n\n###A function for users to serach for trips based on criteria\n@auth.requires_login()\ndef after_search():\n    if len(request.args)>4:\n        pageno=int(request.args[4])\n    else:\n        pageno=0\n    Trips=db((db.trip.max_people-db.trip.total_tillnow >= int(request.args[3])) & (db.trip.strid!=auth.user_id) & (db.trip.date_of_trip==request.args[2]) & (db.trip.to_place==request.args[1]) & ((db.trip.date_of_trip > datetime.date.today()) | ((db.trip.date_of_trip==datetime.date.today()) & (db.trip.start_up > datetime.datetime.now().time())))).select(db.trip.ALL,limitby=(7*pageno,7*(pageno+1)+1))\n    #& (db.trip.from_place==request.args[0]) \n    return locals()\n\n###A function to return a user\'s trips\n@auth.requires_login()\ndef PendingTrips():\n    if len(request.args)>0:\n        pageno1=int(request.args[0])\n    else:\n        pageno1=0\n    if len(request.args)>1:\n        pageno2=int(request.args[1])\n    else:\n        pageno2=0\n    qr2 = ((db.trip.date_of_trip > datetime.date.today()) | ((db.trip.date_of_trip==datetime.date.today()) & (db.trip.start_up > datetime.datetime.now().time())))\n    PendTripsasadmin=db((auth.user_id==db.trip.strid) & qr2).select(db.trip.ALL,limitby=(7*pageno1,7*(pageno1+1)+1))\n    PendTrips=db((auth.user_id==db.passenger.userid) & (db.passenger.tripid==db.trip.id) & qr2).select(db.trip.ALL,limitby=(7*pageno2,7*(pageno2+1)+1))\n    return locals()\n\n@auth.requires_login()\ndef PrevTrips():\n    if len(request.args)>0:\n        pageno1=int(request.args[2])\n    else:\n        pageno1=0\n    if len(request.args)>1:\n        pageno2=int(request.args[3])\n    else:\n        pageno2=0\n    qr1 = ((db.trip.date_of_trip < datetime.date.today()) | ((db.trip.date_of_trip==datetime.date.today()) & (db.trip.start_end < datetime.datetime.now().time())))\n    PrevTripsasadmin=db((auth.user_id==db.trip.strid) & qr1).select(db.trip.ALL,limitby=(7*pageno1,7*(pageno1+1)+1))\n    PrevTrips=db((auth.user_id==db.passenger.userid) & (db.passenger.tripid==db.trip.id) & qr1).select(db.trip.ALL,limitby=(10*pageno2,10*(pageno2+1)+1))\n    return locals()\n\n@auth.requires_login()\ndef voting():\n    form=SQLFORM(db.voting)\n    return locals()\n\n###A function to view details of trip and user and to send him request to join him.\n@auth.requires_login()\ndef particular():\n    userid=auth.user_id\n    trip=db.trip[request.args[0]]\n    seT=[]\n    i=0\n    while i < (int(trip.max_people-trip.total_tillnow)):\n        seT.append(i+1)\n        i+=1\n    form=SQLFORM.factory(Field(\'No_of_people\',\'integer\',requires=IS_IN_SET(seT)))\n    user=db.auth_user[trip.strid]\n    if form.process().accepted:\n        redirect(URL(\'create_notification\',args=[1,trip.id,trip.strid,userid,user.username,form.vars.No_of_people]))\n    elif form.process().errors:\n        response.flash="Enter a number less than vacant seats"\n    flag=db((db.notification.send_id==userid) & (db.notification.tripid==trip.id)).select(db.trip.ALL)\n    if len(flag)>0:\n        flag=1\n    else:\n        flag=0\n    return locals()\n\n###A function to view passengers of trip and to accept requests to join trip.\n@auth.requires_login()\ndef particularasadmin():\n    trip=db.trip[request.args[0]]\n    comments=db(db.tc.tid==trip.id).select(db.tc.ALL)\n    qr=(db.notification.type_of==1) & (db.notification.tripid==trip.id) & (db.notification.flag_of==0) &(db.notification.send_id==db.auth_user.id)\n    requests=db(qr).select(db.auth_user.ALL)\n    notif=db(qr).select(db.notification.ALL)\n    accepted=db((trip.id==db.passenger.tripid) & (db.auth_user.id==db.passenger.userid)).select(db.auth_user.ALL)\n    return locals()\n\ndef particularwithcomm():\n    curr=auth.user_id\n    trip=db.trip[request.args[0]]\n    starter=db.auth_user[trip.strid]\n    comments=db(db.tc.tid==trip.id).select(db.tc.ALL)\n    passengers=db((db.passenger.tripid==trip.id) & (db.passenger.userid==db.auth_user.id)).select(db.auth_user.ALL)\n    return locals()\n\n###A computer generated notification creating fucntion.\n@auth.requires_login()\ndef create_notification():\n    ###If first argument is 1,it is a requst to join the trip from sender to receiver.\n    if int(request.args[0])==1:\n        msg=request.args[4]+\' has sent request to share the cab with you.\'\n        db.notification.insert(send_id=int(request.args[3]),rec_id=int(request.args[2]),tripid=int(request.args[1]),msg=msg,date_of=datetime.date.today(),time_of=datetime.datetime.now().time(),type_of=1,status=0,flag_of=0,no_of=int(request.args[5]))\n    elif int(request.args[0])==2:\n        msg=request.args[2]+\' has accepted you request.\'\n        db.notification.insert(send_id=int(request.args[2]),rec_id=int(request.args[3]),tripid=int(request.args[1]),msg=msg,date_of=datetime.date.today(),time_of=datetime.datetime.now().time(),type_of=2,status=0,flag_of=0,no_of=int(request.args[5]))\n        db.passenger.insert(userid=int(request.args[3]),tripid=int(request.args[1]),no_of=int(request.args[5]))\n        db((db.notification.tripid==request.args[1]) & (db.notification.send_id==request.args[3]) & (db.notification.type_of==1)).update(flag_of=1)\n        db(db.trip.id==int(request.args[1])).update(total_tillnow=db.trip.total_tillnow+request.args[5])\n    redirect(URL(\'PendingTrips\'))\n    return locals()\n\n###A function called on clicking the profile pictures to see the profile details of the user.\n@auth.requires_login()\ndef profile_view():\n    usrid = request.args(0,cast=int)\n    info  = db.auth_user(db.auth_user.id==usrid)\n    qr = db.voting.candid == usrid\n    cms = db(qr).select(orderby=~db.voting.time_of,limitby=(0,5))\n    img=[];udrid=[];nms=[]\n    cnt=0;ck=0\n    for j in cms:\n        ck = ck+1\n        udrid +=[j.voterid]\n        img+=[db.auth_user(db.auth_user.id == udrid).Pp]\n        nms+=[db.auth_user(db.auth_user.id == udrid).first_name]\n    return locals()\n\ndef myprofile():\n    redirect("http://127.0.0.1:8000/Cabshare/default/user/profile?_next=/Cabshare/default/myprofile")\n    return locals()\n\nresponse._vars=response._caller(fill_feedback)\n'
p7
sS'snapshot'
p8
(dp9
S'exception'
p10
(dp11
S'__getslice__'
p12
S"<method-wrapper '__getslice__' of exceptions.SyntaxError object>"
p13
sS'text'
p14
S"'return locals()\\n'"
p15
sS'__str__'
p16
S"<method-wrapper '__str__' of exceptions.SyntaxError object>"
p17
sS'__reduce__'
p18
S'<built-in method __reduce__ of exceptions.SyntaxError object>'
p19
sS'__dict__'
p20
S'{}'
p21
sS'__sizeof__'
p22
S'<built-in method __sizeof__ of exceptions.SyntaxError object>'
p23
sS'__init__'
p24
S"<method-wrapper '__init__' of exceptions.SyntaxError object>"
p25
sS'__setattr__'
p26
S"<method-wrapper '__setattr__' of exceptions.SyntaxError object>"
p27
sS'__reduce_ex__'
p28
S'<built-in method __reduce_ex__ of exceptions.SyntaxError object>'
p29
sS'__new__'
p30
S'<built-in method __new__ of type object>'
p31
sS'__format__'
p32
S'<built-in method __format__ of exceptions.SyntaxError object>'
p33
sS'__class__'
p34
S"<type 'exceptions.SyntaxError'>"
p35
sS'filename'
p36
S"'/home/krishna/ACADEMICS/SEM(1-2)/ASGN AND QUESTI...b2py/applications/Cabshare/controllers/default.py'"
p37
sS'lineno'
p38
S'115'
p39
sS'msg'
p40
S'"\'return\' outside function"'
p41
sS'__doc__'
p42
S"'Invalid syntax.'"
p43
sS'__getitem__'
p44
S"<method-wrapper '__getitem__' of exceptions.SyntaxError object>"
p45
sS'__setstate__'
p46
S'<built-in method __setstate__ of exceptions.SyntaxError object>'
p47
sS'__getattribute__'
p48
S"<method-wrapper '__getattribute__' of exceptions.SyntaxError object>"
p49
sS'print_file_and_line'
p50
S'None'
p51
sS'args'
p52
S'("\'return\' outside function", (\'/home/krishna/ACADEMICS/SEM(1-2)/ASGN AND QUESTI...b2py/applications/Cabshare/controllers/default.py\', 115, None, \'return locals()\\n\'))'
p53
sS'__subclasshook__'
p54
S'<built-in method __subclasshook__ of type object>'
p55
sS'offset'
p56
S'None'
p57
sS'__unicode__'
p58
S'<built-in method __unicode__ of exceptions.SyntaxError object>'
p59
sS'__delattr__'
p60
S"<method-wrapper '__delattr__' of exceptions.SyntaxError object>"
p61
sS'__repr__'
p62
S"<method-wrapper '__repr__' of exceptions.SyntaxError object>"
p63
sS'__hash__'
p64
S"<method-wrapper '__hash__' of exceptions.SyntaxError object>"
p65
ssS'evalue'
p66
S"'return' outside function (default.py, line 115)"
p67
sS'request'
p68
cgluon.html
XML_unpickle
p69
(S'sLY\x00\x00<div><table><tr><td style="font-weight:bold;vertical-align:top;">ajax</td><td style="vertical-align:top;">:</td><td><div>False</div></td></tr><tr><td style="font-weight:bold;vertical-align:top;">application</td><td style="vertical-align:top;">:</td><td><div>Cabshare</div></td></tr><tr><td style="font-weight:bold;vertical-align:top;">args</td><td style="vertical-align:top;">:</td><td><div><table><tr><td><div>6</div></td></tr></table></div></td></tr><tr><td style="font-weight:bold;vertical-align:top;">cid</td><td style="vertical-align:top;">:</td><td><div>None</div></td></tr><tr><td style="font-weight:bold;vertical-align:top;">client</td><td style="vertical-align:top;">:</td><td><div>127.0.0.1</div></td></tr><tr><td style="font-weight:bold;vertical-align:top;">controller</td><td style="vertical-align:top;">:</td><td><div>default</div></td></tr><tr><td style="font-weight:bold;vertical-align:top;">cookies</td><td style="vertical-align:top;">:</td><td><div><table><tr><td style="font-weight:bold;vertical-align:top;">session_id_admin</td><td style="vertical-align:top;">:</td><td><div>127.0.0.1-bf470631-318d-421c-878b-c4a60abbcc58<table><tr><td style="font-weight:bold;vertical-align:top;">comment</td><td style="vertical-align:top;">:</td><td><div></div></td></tr><tr><td style="font-weight:bold;vertical-align:top;">domain</td><td style="vertical-align:top;">:</td><td><div></div></td></tr><tr><td style="font-weight:bold;vertical-align:top;">expires</td><td style="vertical-align:top;">:</td><td><div></div></td></tr><tr><td style="font-weight:bold;vertical-align:top;">httponly</td><td style="vertical-align:top;">:</td><td><div></div></td></tr><tr><td style="font-weight:bold;vertical-align:top;">max-age</td><td style="vertical-align:top;">:</td><td><div></div></td></tr><tr><td style="font-weight:bold;vertical-align:top;">path</td><td style="vertical-align:top;">:</td><td><div></div></td></tr><tr><td style="font-weight:bold;vertical-align:top;">secure</td><td style="vertical-align:top;">:</td><td><div></div></td></tr><tr><td style="font-weight:bold;vertical-align:top;">version</td><td style="vertical-align:top;">:</td><td><div></div></td></tr></table></div></td></tr><tr><td style="font-weight:bold;vertical-align:top;">session_id_cabshare</td><td style="vertical-align:top;">:</td><td><div>127.0.0.1-0ad66feb-6b00-4991-85ca-fd5afd61c597<table><tr><td style="font-weight:bold;vertical-align:top;">comment</td><td style="vertical-align:top;">:</td><td><div></div></td></tr><tr><td style="font-weight:bold;vertical-align:top;">domain</td><td style="vertical-align:top;">:</td><td><div></div></td></tr><tr><td style="font-weight:bold;vertical-align:top;">expires</td><td style="vertical-align:top;">:</td><td><div></div></td></tr><tr><td style="font-weight:bold;vertical-align:top;">httponly</td><td style="vertical-align:top;">:</td><td><div></div></td></tr><tr><td style="font-weight:bold;vertical-align:top;">max-age</td><td style="vertical-align:top;">:</td><td><div></div></td></tr><tr><td style="font-weight:bold;vertical-align:top;">path</td><td style="vertical-align:top;">:</td><td><div></div></td></tr><tr><td style="font-weight:bold;vertical-align:top;">secure</td><td style="vertical-align:top;">:</td><td><div></div></td></tr><tr><td style="font-weight:bold;vertical-align:top;">version</td><td style="vertical-align:top;">:</td><td><div></div></td></tr></table></div></td></tr></table></div></td></tr><tr><td style="font-weight:bold;vertical-align:top;">env</td><td style="vertical-align:top;">:</td><td><div><table><tr><td style="font-weight:bold;vertical-align:top;">HTTP_ACCEPT</td><td style="vertical-align:top;">:</td><td><div>text/html,application/xhtml+xml,application/xml;q=0.9,*/*;q=0.8</div></td></tr><tr><td style="font-weight:bold;vertical-align:top;">HTTP_ACCEPT_ENCODING</td><td style="vertical-align:top;">:</td><td><div>gzip, deflate</div></td></tr><tr><td style="font-weight:bold;vertical-align:top;">HTTP_ACCEPT_LANGUAGE</td><td style="vertical-align:top;">:</td><td><div>en-US,en;q=0.5</div></td></tr><tr><td style="font-weight:bold;vertical-align:top;">HTTP_CACHE_CONTROL</td><td style="vertical-align:top;">:</td><td><div>max-age=0</div></td></tr><tr><td style="font-weight:bold;vertical-align:top;">HTTP_CONNECTION</td><td style="vertical-align:top;">:</td><td><div>keep-alive</div></td></tr><tr><td style="font-weight:bold;vertical-align:top;">HTTP_COOKIE</td><td style="vertical-align:top;">:</td><td><div>session_id_cabshare=127.0.0.1-0ad66feb-6b00-4991-85ca-fd5afd61c597; session_id_admin=127.0.0.1-bf470631-318d-421c-878b-c4a60abbcc58</div></td></tr><tr><td style="font-weight:bold;vertical-align:top;">HTTP_HOST</td><td style="vertical-align:top;">:</td><td><div>127.0.0.1:8000</div></td></tr><tr><td style="font-weight:bold;vertical-align:top;">HTTP_REFERER</td><td style="vertical-align:top;">:</td><td><div>http://127.0.0.1:8000/Cabshare/default/fill_feedback/6</div></td></tr><tr><td style="font-weight:bold;vertical-align:top;">HTTP_USER_AGENT</td><td style="vertical-align:top;">:</td><td><div>Mozilla/5.0 (X11; Fedora; Linux x86_64; rv:41.0) Gecko/20100101 Firefox/41.0</div></td></tr><tr><td style="font-weight:bold;vertical-align:top;">PATH_INFO</td><td style="vertical-align:top;">:</td><td><div>/Cabshare/default/fill_feedback/6</div></td></tr><tr><td style="font-weight:bold;vertical-align:top;">QUERY_STRING</td><td style="vertical-align:top;">:</td><td><div>cmt=</div></td></tr><tr><td style="font-weight:bold;vertical-align:top;">REMOTE_ADDR</td><td style="vertical-align:top;">:</td><td><div>127.0.0.1</div></td></tr><tr><td style="font-weight:bold;vertical-align:top;">REMOTE_PORT</td><td style="vertical-align:top;">:</td><td><div>40430</div></td></tr><tr><td style="font-weight:bold;vertical-align:top;">REQUEST_METHOD</td><td style="vertical-align:top;">:</td><td><div>GET</div></td></tr><tr><td style="font-weight:bold;vertical-align:top;">SCRIPT_NAME</td><td style="vertical-align:top;">:</td><td><div></div></td></tr><tr><td style="font-weight:bold;vertical-align:top;">SERVER_NAME</td><td style="vertical-align:top;">:</td><td><div>chaitanya-pc</div></td></tr><tr><td style="font-weight:bold;vertical-align:top;">SERVER_PORT</td><td style="vertical-align:top;">:</td><td><div>8000</div></td></tr><tr><td style="font-weight:bold;vertical-align:top;">SERVER_PROTOCOL</td><td style="vertical-align:top;">:</td><td><div>HTTP/1.1</div></td></tr><tr><td style="font-weight:bold;vertical-align:top;">SERVER_SOFTWARE</td><td style="vertical-align:top;">:</td><td><div>Rocket 1.2.6</div></td></tr><tr><td style="font-weight:bold;vertical-align:top;">app_folders</td><td style="vertical-align:top;">:</td><td><div>set([&#x27;/home/krishna/ACADEMICS/SEM(1-2)/ASGN AND QUESTIONS/ITWS-2/PROJECT/V5/PROJECT/web2py/applications/admin/&#x27;, &#x27;/home/krishna/ACADEMICS/SEM(1-2)/ASGN AND QUESTIONS/ITWS-2/PROJECT/V5/PROJECT/web2py/applications/Cabshare/&#x27;])</div></td></tr><tr><td style="font-weight:bold;vertical-align:top;">applications_parent</td><td style="vertical-align:top;">:</td><td><div>/home/krishna/ACADEMICS/SEM(1-2)/ASGN AND QUESTIONS/ITWS-2/PROJECT/V5/PROJECT/web2py</div></td></tr><tr><td style="font-weight:bold;vertical-align:top;">cmd_args</td><td style="vertical-align:top;">:</td><td><div><table></table></div></td></tr><tr><td style="font-weight:bold;vertical-align:top;">cmd_options</td><td style="vertical-align:top;">:</td><td><div>&lt;Values at 0x7f8260d1c3f8: {&#x27;verbose&#x27;: False, &#x27;ip&#x27;: &#x27;127.0.0.1&#x27;, &#x27;debuglevel&#x27;: 30, &#x27;with_scheduler&#x27;: False, &#x27;shutdown_timeout&#x27;: 5, &#x27;taskbar&#x27;: False, &#x27;with_coverage&#x27;: False, &#x27;pid_filename&#x27;: &#x27;httpserver.pid&#x27;, &#x27;maxthreads&#x27;: None, &#x27;softcron&#x27;: False, &#x27;server_name&#x27;: &#x27;chaitanya-pc&#x27;, &#x27;bpython&#x27;: False, &#x27;nogui&#x27;: False, &#x27;port&#x27;: 8000, &#x27;print_errors&#x27;: False, &#x27;extcron&#x27;: False, &#x27;runcron&#x27;: False, &#x27;run_system_tests&#x27;: False, &#x27;test&#x27;: None, &#x27;folder&#x27;: &#x27;/home/krishna/ACADEMICS/SEM(1-2)/ASGN AND QUESTIONS/ITWS-2/PROJECT/V5/PROJECT/web2py&#x27;, &#x27;config&#x27;: &#x27;&#x27;, &#x27;minthreads&#x27;: None, &#x27;shell&#x27;: None, &#x27;run&#x27;: &#x27;&#x27;, &#x27;log_filename&#x27;: &#x27;httpserver.log&#x27;, &#x27;profiler_dir&#x27;: None, &#x27;args&#x27;: [&#x27;&#x27;], &#x27;socket_timeout&#x27;: 5, &#x27;ssl_ca_certificate&#x27;: None, &#x27;scheduler&#x27;: None, &#x27;interfaces&#x27;: None, &#x27;ssl_private_key&#x27;: &#x27;&#x27;, &#x27;gae&#x27;: None, &#x27;password&#x27;: &#x27;******&#x27;, &#x27;request_queue_size&#x27;: 5, &#x27;ssl_certificate&#x27;: &#x27;&#x27;, &#x27;cronjob&#x27;: False, &#x27;numthreads&#x27;: None, &#x27;quiet&#x27;: False, &#x27;import_models&#x27;: False, &#x27;timeout&#x27;: 10, &#x27;plain&#x27;: False, &#x27;nobanner&#x27;: False}&gt;</div></td></tr><tr><td style="font-weight:bold;vertical-align:top;">db_sessions</td><td style="vertical-align:top;">:</td><td><div>set([])</div></td></tr><tr><td style="font-weight:bold;vertical-align:top;">debugging</td><td style="vertical-align:top;">:</td><td><div>False</div></td></tr><tr><td style="font-weight:bold;vertical-align:top;">gluon_parent</td><td style="vertical-align:top;">:</td><td><div>/home/krishna/ACADEMICS/SEM(1-2)/ASGN AND QUESTIONS/ITWS-2/PROJECT/V5/PROJECT/web2py</div></td></tr><tr><td style="font-weight:bold;vertical-align:top;">http_accept</td><td style="vertical-align:top;">:</td><td><div>text/html,application/xhtml+xml,application/xml;q=0.9,*/*;q=0.8</div></td></tr><tr><td style="font-weight:bold;vertical-align:top;">http_accept_encoding</td><td style="vertical-align:top;">:</td><td><div>gzip, deflate</div></td></tr><tr><td style="font-weight:bold;vertical-align:top;">http_accept_language</td><td style="vertical-align:top;">:</td><td><div>en-US,en;q=0.5</div></td></tr><tr><td style="font-weight:bold;vertical-align:top;">http_cache_control</td><td style="vertical-align:top;">:</td><td><div>max-age=0</div></td></tr><tr><td style="font-weight:bold;vertical-align:top;">http_connection</td><td style="vertical-align:top;">:</td><td><div>keep-alive</div></td></tr><tr><td style="font-weight:bold;vertical-align:top;">http_cookie</td><td style="vertical-align:top;">:</td><td><div>session_id_cabshare=127.0.0.1-0ad66feb-6b00-4991-85ca-fd5afd61c597; session_id_admin=127.0.0.1-bf470631-318d-421c-878b-c4a60abbcc58</div></td></tr><tr><td style="font-weight:bold;vertical-align:top;">http_host</td><td style="vertical-align:top;">:</td><td><div>127.0.0.1:8000</div></td></tr><tr><td style="font-weight:bold;vertical-align:top;">http_referer</td><td style="vertical-align:top;">:</td><td><div>http://127.0.0.1:8000/Cabshare/default/fill_feedback/6</div></td></tr><tr><td style="font-weight:bold;vertical-align:top;">http_user_agent</td><td style="vertical-align:top;">:</td><td><div>Mozilla/5.0 (X11; Fedora; Linux x86_64; rv:41.0) Gecko/20100101 Firefox/41.0</div></td></tr><tr><td style="font-weight:bold;vertical-align:top;">is_jython</td><td style="vertical-align:top;">:</td><td><div>False</div></td></tr><tr><td style="font-weight:bold;vertical-align:top;">is_pypy</td><td style="vertical-align:top;">:</td><td><div>False</div></td></tr><tr><td style="font-weight:bold;vertical-align:top;">is_source</td><td style="vertical-align:top;">:</td><td><div>True</div></td></tr><tr><td style="font-weight:bold;vertical-align:top;">local_hosts</td><td style="vertical-align:top;">:</td><td><div><table><tr><td><div>chaitanya-pc</div></td></tr><tr><td><div>fe80::665a:4ff:fe86:63d2%wlp2s0</div></td></tr><tr><td><div>::ffff:127.0.0.1</div></td></tr><tr><td><div>::1</div></td></tr><tr><td><div>192.168.124.1</div></td></tr><tr><td><div>10.2.129.236</div></td></tr><tr><td><div>127.0.0.1</div></td></tr></table></div></td></tr><tr><td style="font-weight:bold;vertical-align:top;">path_info</td><td style="vertical-align:top;">:</td><td><div>/Cabshare/default/fill_feedback/6</div></td></tr><tr><td style="font-weight:bold;vertical-align:top;">query_string</td><td style="vertical-align:top;">:</td><td><div>cmt=</div></td></tr><tr><td style="font-weight:bold;vertical-align:top;">remote_addr</td><td style="vertical-align:top;">:</td><td><div>127.0.0.1</div></td></tr><tr><td style="font-weight:bold;vertical-align:top;">remote_port</td><td style="vertical-align:top;">:</td><td><div>40430</div></td></tr><tr><td style="font-weight:bold;vertical-align:top;">request_method</td><td style="vertical-align:top;">:</td><td><div>GET</div></td></tr><tr><td style="font-weight:bold;vertical-align:top;">request_uri</td><td style="vertical-align:top;">:</td><td><div>/Cabshare/default/fill_feedback/6?cmt=</div></td></tr><tr><td style="font-weight:bold;vertical-align:top;">script_name</td><td style="vertical-align:top;">:</td><td><div></div></td></tr><tr><td style="font-weight:bold;vertical-align:top;">server_name</td><td style="vertical-align:top;">:</td><td><div>chaitanya-pc</div></td></tr><tr><td style="font-weight:bold;vertical-align:top;">server_port</td><td style="vertical-align:top;">:</td><td><div>8000</div></td></tr><tr><td style="font-weight:bold;vertical-align:top;">server_protocol</td><td style="vertical-align:top;">:</td><td><div>HTTP/1.1</div></td></tr><tr><td style="font-weight:bold;vertical-align:top;">server_software</td><td style="vertical-align:top;">:</td><td><div>Rocket 1.2.6</div></td></tr><tr><td style="font-weight:bold;vertical-align:top;">web2py_path</td><td style="vertical-align:top;">:</td><td><div>/home/krishna/ACADEMICS/SEM(1-2)/ASGN AND QUESTIONS/ITWS-2/PROJECT/V5/PROJECT/web2py</div></td></tr><tr><td style="font-weight:bold;vertical-align:top;">web2py_version</td><td style="vertical-align:top;">:</td><td><div>2.14.3-stable+timestamp.2016.03.26.23.02.02</div></td></tr><tr><td style="font-weight:bold;vertical-align:top;">wsgi.errors</td><td style="vertical-align:top;">:</td><td><div>&lt;open file &#x27;&lt;stderr&gt;&#x27;, mode &#x27;w&#x27; at 0x7f826fb611e0&gt;</div></td></tr><tr><td style="font-weight:bold;vertical-align:top;">wsgi.file_wrapper</td><td style="vertical-align:top;">:</td><td><div>&lt;class wsgiref.util.FileWrapper at 0x7f8260d48328&gt;</div></td></tr><tr><td style="font-weight:bold;vertical-align:top;">wsgi.input</td><td style="vertical-align:top;">:</td><td><div>&lt;socket._fileobject object at 0x7f82444b7150&gt;</div></td></tr><tr><td style="font-weight:bold;vertical-align:top;">wsgi.multiprocess</td><td style="vertical-align:top;">:</td><td><div>False</div></td></tr><tr><td style="font-weight:bold;vertical-align:top;">wsgi.multithread</td><td style="vertical-align:top;">:</td><td><div>True</div></td></tr><tr><td style="font-weight:bold;vertical-align:top;">wsgi.run_once</td><td style="vertical-align:top;">:</td><td><div>False</div></td></tr><tr><td style="font-weight:bold;vertical-align:top;">wsgi.url_scheme</td><td style="vertical-align:top;">:</td><td><div>http</div></td></tr><tr><td style="font-weight:bold;vertical-align:top;">wsgi.version</td><td style="vertical-align:top;">:</td><td><div><table><tr><td><div>1</div></td></tr><tr><td><div>0</div></td></tr></table></div></td></tr><tr><td style="font-weight:bold;vertical-align:top;">wsgi_errors</td><td style="vertical-align:top;">:</td><td><div>&lt;open file &#x27;&lt;stderr&gt;&#x27;, mode &#x27;w&#x27; at 0x7f826fb611e0&gt;</div></td></tr><tr><td style="font-weight:bold;vertical-align:top;">wsgi_file_wrapper</td><td style="vertical-align:top;">:</td><td><div>&lt;class wsgiref.util.FileWrapper at 0x7f8260d48328&gt;</div></td></tr><tr><td style="font-weight:bold;vertical-align:top;">wsgi_input</td><td style="vertical-align:top;">:</td><td><div>&lt;socket._fileobject object at 0x7f82444b7150&gt;</div></td></tr><tr><td style="font-weight:bold;vertical-align:top;">wsgi_multiprocess</td><td style="vertical-align:top;">:</td><td><div>False</div></td></tr><tr><td style="font-weight:bold;vertical-align:top;">wsgi_multithread</td><td style="vertical-align:top;">:</td><td><div>True</div></td></tr><tr><td style="font-weight:bold;vertical-align:top;">wsgi_run_once</td><td style="vertical-align:top;">:</td><td><div>False</div></td></tr><tr><td style="font-weight:bold;vertical-align:top;">wsgi_url_scheme</td><td style="vertical-align:top;">:</td><td><div>http</div></td></tr><tr><td style="font-weight:bold;vertical-align:top;">wsgi_version</td><td style="vertical-align:top;">:</td><td><div><table><tr><td><div>1</div></td></tr><tr><td><div>0</div></td></tr></table></div></td></tr></table></div></td></tr><tr><td style="font-weight:bold;vertical-align:top;">extension</td><td style="vertical-align:top;">:</td><td><div>html</div></td></tr><tr><td style="font-weight:bold;vertical-align:top;">folder</td><td style="vertical-align:top;">:</td><td><div>/home/krishna/ACADEMICS/SEM(1-2)/ASGN AND QUESTIONS/ITWS-2/PROJECT/V5/PROJECT/web2py/applications/Cabshare/</div></td></tr><tr><td style="font-weight:bold;vertical-align:top;">function</td><td style="vertical-align:top;">:</td><td><div>fill_feedback</div></td></tr><tr><td style="font-weight:bold;vertical-align:top;">global_settings</td><td style="vertical-align:top;">:</td><td><div><table><tr><td style="font-weight:bold;vertical-align:top;">app_folders</td><td style="vertical-align:top;">:</td><td><div>set([&#x27;/home/krishna/ACADEMICS/SEM(1-2)/ASGN AND QUESTIONS/ITWS-2/PROJECT/V5/PROJECT/web2py/applications/admin/&#x27;, &#x27;/home/krishna/ACADEMICS/SEM(1-2)/ASGN AND QUESTIONS/ITWS-2/PROJECT/V5/PROJECT/web2py/applications/Cabshare/&#x27;])</div></td></tr><tr><td style="font-weight:bold;vertical-align:top;">applications_parent</td><td style="vertical-align:top;">:</td><td><div>/home/krishna/ACADEMICS/SEM(1-2)/ASGN AND QUESTIONS/ITWS-2/PROJECT/V5/PROJECT/web2py</div></td></tr><tr><td style="font-weight:bold;vertical-align:top;">cmd_args</td><td style="vertical-align:top;">:</td><td><div><table></table></div></td></tr><tr><td style="font-weight:bold;vertical-align:top;">cmd_options</td><td style="vertical-align:top;">:</td><td><div>&lt;Values at 0x7f8260d1c3f8: {&#x27;verbose&#x27;: False, &#x27;ip&#x27;: &#x27;127.0.0.1&#x27;, &#x27;debuglevel&#x27;: 30, &#x27;with_scheduler&#x27;: False, &#x27;shutdown_timeout&#x27;: 5, &#x27;taskbar&#x27;: False, &#x27;with_coverage&#x27;: False, &#x27;pid_filename&#x27;: &#x27;httpserver.pid&#x27;, &#x27;maxthreads&#x27;: None, &#x27;softcron&#x27;: False, &#x27;server_name&#x27;: &#x27;chaitanya-pc&#x27;, &#x27;bpython&#x27;: False, &#x27;nogui&#x27;: False, &#x27;port&#x27;: 8000, &#x27;print_errors&#x27;: False, &#x27;extcron&#x27;: False, &#x27;runcron&#x27;: False, &#x27;run_system_tests&#x27;: False, &#x27;test&#x27;: None, &#x27;folder&#x27;: &#x27;/home/krishna/ACADEMICS/SEM(1-2)/ASGN AND QUESTIONS/ITWS-2/PROJECT/V5/PROJECT/web2py&#x27;, &#x27;config&#x27;: &#x27;&#x27;, &#x27;minthreads&#x27;: None, &#x27;shell&#x27;: None, &#x27;run&#x27;: &#x27;&#x27;, &#x27;log_filename&#x27;: &#x27;httpserver.log&#x27;, &#x27;profiler_dir&#x27;: None, &#x27;args&#x27;: [&#x27;&#x27;], &#x27;socket_timeout&#x27;: 5, &#x27;ssl_ca_certificate&#x27;: None, &#x27;scheduler&#x27;: None, &#x27;interfaces&#x27;: None, &#x27;ssl_private_key&#x27;: &#x27;&#x27;, &#x27;gae&#x27;: None, &#x27;password&#x27;: &#x27;******&#x27;, &#x27;request_queue_size&#x27;: 5, &#x27;ssl_certificate&#x27;: &#x27;&#x27;, &#x27;cronjob&#x27;: False, &#x27;numthreads&#x27;: None, &#x27;quiet&#x27;: False, &#x27;import_models&#x27;: False, &#x27;timeout&#x27;: 10, &#x27;plain&#x27;: False, &#x27;nobanner&#x27;: False}&gt;</div></td></tr><tr><td style="font-weight:bold;vertical-align:top;">db_sessions</td><td style="vertical-align:top;">:</td><td><div>set([])</div></td></tr><tr><td style="font-weight:bold;vertical-align:top;">debugging</td><td style="vertical-align:top;">:</td><td><div>False</div></td></tr><tr><td style="font-weight:bold;vertical-align:top;">gluon_parent</td><td style="vertical-align:top;">:</td><td><div>/home/krishna/ACADEMICS/SEM(1-2)/ASGN AND QUESTIONS/ITWS-2/PROJECT/V5/PROJECT/web2py</div></td></tr><tr><td style="font-weight:bold;vertical-align:top;">is_jython</td><td style="vertical-align:top;">:</td><td><div>False</div></td></tr><tr><td style="font-weight:bold;vertical-align:top;">is_pypy</td><td style="vertical-align:top;">:</td><td><div>False</div></td></tr><tr><td style="font-weight:bold;vertical-align:top;">is_source</td><td style="vertical-align:top;">:</td><td><div>True</div></td></tr><tr><td style="font-weight:bold;vertical-align:top;">local_hosts</td><td style="vertical-align:top;">:</td><td><div><table><tr><td><div>chaitanya-pc</div></td></tr><tr><td><div>fe80::665a:4ff:fe86:63d2%wlp2s0</div></td></tr><tr><td><div>::ffff:127.0.0.1</div></td></tr><tr><td><div>::1</div></td></tr><tr><td><div>192.168.124.1</div></td></tr><tr><td><div>10.2.129.236</div></td></tr><tr><td><div>127.0.0.1</div></td></tr></table></div></td></tr><tr><td style="font-weight:bold;vertical-align:top;">web2py_version</td><td style="vertical-align:top;">:</td><td><div>2.14.3-stable+timestamp.2016.03.26.23.02.02</div></td></tr></table></div></td></tr><tr><td style="font-weight:bold;vertical-align:top;">is_https</td><td style="vertical-align:top;">:</td><td><div>False</div></td></tr><tr><td style="font-weight:bold;vertical-align:top;">is_local</td><td style="vertical-align:top;">:</td><td><div>True</div></td></tr><tr><td style="font-weight:bold;vertical-align:top;">is_restful</td><td style="vertical-align:top;">:</td><td><div>False</div></td></tr><tr><td style="font-weight:bold;vertical-align:top;">is_scheduler</td><td style="vertical-align:top;">:</td><td><div>False</div></td></tr><tr><td style="font-weight:bold;vertical-align:top;">is_shell</td><td style="vertical-align:top;">:</td><td><div>False</div></td></tr><tr><td style="font-weight:bold;vertical-align:top;">now</td><td style="vertical-align:top;">:</td><td><div>datetime.datetime(2016, 4, 18, 18, 6, 19, 688921)</div></td></tr><tr><td style="font-weight:bold;vertical-align:top;">raw_args</td><td style="vertical-align:top;">:</td><td><div>6</div></td></tr><tr><td style="font-weight:bold;vertical-align:top;">raw_extension</td><td style="vertical-align:top;">:</td><td><div>None</div></td></tr><tr><td style="font-weight:bold;vertical-align:top;">url</td><td style="vertical-align:top;">:</td><td><div>/Cabshare/default/fill_feedback/6</div></td></tr><tr><td style="font-weight:bold;vertical-align:top;">utcnow</td><td style="vertical-align:top;">:</td><td><div>datetime.datetime(2016, 4, 18, 22, 6, 19, 688977)</div></td></tr><tr><td style="font-weight:bold;vertical-align:top;">wsgi</td><td style="vertical-align:top;">:</td><td><div>&lt;gluon.main.LazyWSGI object at 0x7f8244479b50&gt;</div></td></tr></table></div>'
tRp70
sS'frames'
p71
(lp72
(dp73
S'file'
p74
S'/home/krishna/ACADEMICS/SEM(1-2)/ASGN AND QUESTIONS/ITWS-2/PROJECT/V5/PROJECT/web2py/gluon/restricted.py'
p75
sS'dump'
p76
(dp77
S'code'
p78
S"'# -*- coding: utf-8 -*-\\n# this file is released ...\\n\\nresponse._vars=response._caller(fill_feedback)\\n'"
p79
sS'layer'
p80
S"'/home/krishna/ACADEMICS/SEM(1-2)/ASGN AND QUESTI...b2py/applications/Cabshare/controllers/default.py'"
p81
sS'global compile2'
p82
S'<function compile2>'
p83
sS'ccode'
p84
S'undefined'
p85
ssS'lnum'
p86
I226
sS'lines'
p87
(dp88
I224
S'            ccode = code'
p89
sI225
S'        else:'
p90
sI226
S'            ccode = compile2(code, layer)'
p91
sI227
S'        exec ccode in environment'
p92
sI228
S'    except HTTP:'
p93
sI229
S'        raise'
p94
sI230
S'    except RestrictedError:'
p95
sI221
S"    environment['__name__'] = '__restricted__'"
p96
sI222
S'    try:'
p97
sI223
S'        if isinstance(code, types.CodeType):'
p98
ssS'call'
p99
S"(code='# -*- coding: utf-8 -*-\\n# this file is released ...\\n\\nresponse._vars=response._caller(fill_feedback)\\n', environment={'A': <class 'gluon.html.A'>, 'ANY_OF': <class 'gluon.validators.ANY_OF'>, 'ASSIGNJS': <function ASSIGNJS>, 'AppConfig': <function AppConfig>, 'Auth': <class 'gluon.tools.Auth'>, 'B': <class 'gluon.html.B'>, 'BEAUTIFY': <class 'gluon.html.BEAUTIFY'>, 'BODY': <class 'gluon.html.BODY'>, 'BR': <class 'gluon.html.BR'>, 'BUTTON': <class 'gluon.html.BUTTON'>, ...}, layer='/home/krishna/ACADEMICS/SEM(1-2)/ASGN AND QUESTI...b2py/applications/Cabshare/controllers/default.py')"
p100
sS'func'
p101
S'restricted'
p102
sa(dp103
g74
S'/home/krishna/ACADEMICS/SEM(1-2)/ASGN AND QUESTIONS/ITWS-2/PROJECT/V5/PROJECT/web2py/gluon/restricted.py'
p104
sg76
(dp105
S'builtincompile'
p106
S'<built-in function compile>'
p107
sS'code'
p108
S"'# -*- coding: utf-8 -*-\\n# this file is released ...\\n\\nresponse._vars=response._caller(fill_feedback)\\n'"
p109
sS'code.rstrip'
p110
S'<built-in method rstrip of str object>'
p111
sS').replace'
p112
g85
sS'layer'
p113
S"'/home/krishna/ACADEMICS/SEM(1-2)/ASGN AND QUESTI...b2py/applications/Cabshare/controllers/default.py'"
p114
ssg86
I209
sg87
(dp115
I204
S'def compile2(code, layer):'
p116
sI205
S'    """'
p117
sI206
S"    The ``+'\\\\n'`` is necessary else compile fails when code ends in a comment."
p118
sI207
S'    """'
p119
sI208
S''
sI209
S"    return compile(code.rstrip().replace('\\r\\n', '\\n') + '\\n', layer, 'exec')"
p120
sI210
S''
sI211
S''
sI212
S"def restricted(code, environment=None, layer='Unknown'):"
p121
sI213
S'    """'
p122
ssg99
S"(code='# -*- coding: utf-8 -*-\\n# this file is released ...\\n\\nresponse._vars=response._caller(fill_feedback)\\n', layer='/home/krishna/ACADEMICS/SEM(1-2)/ASGN AND QUESTI...b2py/applications/Cabshare/controllers/default.py')"
p123
sg101
S'compile2'
p124
sasS'pyver'
p125
S'Python 2.7.10: /usr/bin/python (prefix: /usr)'
p126
sS'session'
p127
g69
(S's\xfc\x0e\x00\x00<div><table><tr><td style="font-weight:bold;vertical-align:top;">auth</td><td style="vertical-align:top;">:</td><td><div><table><tr><td style="font-weight:bold;vertical-align:top;">expiration</td><td style="vertical-align:top;">:</td><td><div>3600</div></td></tr><tr><td style="font-weight:bold;vertical-align:top;">hmac_key</td><td style="vertical-align:top;">:</td><td><div>2ccbaa60-6b34-4f5d-a79d-9299b37366ad</div></td></tr><tr><td style="font-weight:bold;vertical-align:top;">last_visit</td><td style="vertical-align:top;">:</td><td><div>datetime.datetime(2016, 4, 18, 18, 6, 19, 688921)</div></td></tr><tr><td style="font-weight:bold;vertical-align:top;">remember_me</td><td style="vertical-align:top;">:</td><td><div>False</div></td></tr><tr><td style="font-weight:bold;vertical-align:top;">user</td><td style="vertical-align:top;">:</td><td><div><table><tr><td style="font-weight:bold;vertical-align:top;">City</td><td style="vertical-align:top;">:</td><td><div>Visakhapatnam</div></td></tr><tr><td style="font-weight:bold;vertical-align:top;">Country</td><td style="vertical-align:top;">:</td><td><div>India</div></td></tr><tr><td style="font-weight:bold;vertical-align:top;">Gender</td><td style="vertical-align:top;">:</td><td><div>MALE</div></td></tr><tr><td style="font-weight:bold;vertical-align:top;">Pp</td><td style="vertical-align:top;">:</td><td><div>auth_user.Pp.9b4521f4ab44c461.696e6465782e6a706567.jpeg</div></td></tr><tr><td style="font-weight:bold;vertical-align:top;">depend_rate</td><td style="vertical-align:top;">:</td><td><div>-1L</div></td></tr><tr><td style="font-weight:bold;vertical-align:top;">dob</td><td style="vertical-align:top;">:</td><td><div>datetime.date(1998, 3, 5)</div></td></tr><tr><td style="font-weight:bold;vertical-align:top;">email</td><td style="vertical-align:top;">:</td><td><div>chaitanya5398@gmail.com</div></td></tr><tr><td style="font-weight:bold;vertical-align:top;">first_name</td><td style="vertical-align:top;">:</td><td><div>krishna chaitanya</div></td></tr><tr><td style="font-weight:bold;vertical-align:top;">id</td><td style="vertical-align:top;">:</td><td><div>2L</div></td></tr><tr><td style="font-weight:bold;vertical-align:top;">last_name</td><td style="vertical-align:top;">:</td><td><div>Pappu</div></td></tr><tr><td style="font-weight:bold;vertical-align:top;">mail_nt</td><td style="vertical-align:top;">:</td><td><div>Yes</div></td></tr><tr><td style="font-weight:bold;vertical-align:top;">phone_no</td><td style="vertical-align:top;">:</td><td><div>9492186728L</div></td></tr><tr><td style="font-weight:bold;vertical-align:top;">registration_id</td><td style="vertical-align:top;">:</td><td><div></div></td></tr><tr><td style="font-weight:bold;vertical-align:top;">registration_key</td><td style="vertical-align:top;">:</td><td><div></div></td></tr><tr><td style="font-weight:bold;vertical-align:top;">reset_password_key</td><td style="vertical-align:top;">:</td><td><div></div></td></tr><tr><td style="font-weight:bold;vertical-align:top;">trips_no</td><td style="vertical-align:top;">:</td><td><div>2L</div></td></tr><tr><td style="font-weight:bold;vertical-align:top;">username</td><td style="vertical-align:top;">:</td><td><div>krishna.pappu</div></td></tr><tr><td style="font-weight:bold;vertical-align:top;">votes_no</td><td style="vertical-align:top;">:</td><td><div>0L</div></td></tr></table></div></td></tr><tr><td style="font-weight:bold;vertical-align:top;">user_groups</td><td style="vertical-align:top;">:</td><td><div><table><tr><td style="font-weight:bold;vertical-align:top;">2</td><td style="vertical-align:top;">:</td><td><div>user_2</div></td></tr></table></div></td></tr></table></div></td></tr><tr><td style="font-weight:bold;vertical-align:top;">flash</td><td style="vertical-align:top;">:</td><td><div>None</div></td></tr></table></div>'
tRp128
sS'etype'
p129
S"<type 'exceptions.SyntaxError'>"
p130
sS'date'
p131
S'Mon Apr 18 18:06:19 2016'
p132
sS'response'
p133
g69
(S's\x04!\x00\x00<div><table><tr><td style="font-weight:bold;vertical-align:top;">body</td><td style="vertical-align:top;">:</td><td><div>&lt;cStringIO.StringO object at 0x7f82445c4618&gt;</div></td></tr><tr><td style="font-weight:bold;vertical-align:top;">cookies</td><td style="vertical-align:top;">:</td><td><div><table><tr><td style="font-weight:bold;vertical-align:top;">session_id_cabshare</td><td style="vertical-align:top;">:</td><td><div>127.0.0.1-0ad66feb-6b00-4991-85ca-fd5afd61c597<table><tr><td style="font-weight:bold;vertical-align:top;">comment</td><td style="vertical-align:top;">:</td><td><div></div></td></tr><tr><td style="font-weight:bold;vertical-align:top;">domain</td><td style="vertical-align:top;">:</td><td><div></div></td></tr><tr><td style="font-weight:bold;vertical-align:top;">expires</td><td style="vertical-align:top;">:</td><td><div></div></td></tr><tr><td style="font-weight:bold;vertical-align:top;">httponly</td><td style="vertical-align:top;">:</td><td><div></div></td></tr><tr><td style="font-weight:bold;vertical-align:top;">max-age</td><td style="vertical-align:top;">:</td><td><div></div></td></tr><tr><td style="font-weight:bold;vertical-align:top;">path</td><td style="vertical-align:top;">:</td><td><div>/</div></td></tr><tr><td style="font-weight:bold;vertical-align:top;">secure</td><td style="vertical-align:top;">:</td><td><div></div></td></tr><tr><td style="font-weight:bold;vertical-align:top;">version</td><td style="vertical-align:top;">:</td><td><div></div></td></tr></table></div></td></tr></table></div></td></tr><tr><td style="font-weight:bold;vertical-align:top;">delimiters</td><td style="vertical-align:top;">:</td><td><div><table><tr><td><div>{{</div></td></tr><tr><td><div>}}</div></td></tr></table></div></td></tr><tr><td style="font-weight:bold;vertical-align:top;">files</td><td style="vertical-align:top;">:</td><td><div><table></table></div></td></tr><tr><td style="font-weight:bold;vertical-align:top;">flash</td><td style="vertical-align:top;">:</td><td><div></div></td></tr><tr><td style="font-weight:bold;vertical-align:top;">form_label_separator</td><td style="vertical-align:top;">:</td><td><div></div></td></tr><tr><td style="font-weight:bold;vertical-align:top;">formstyle</td><td style="vertical-align:top;">:</td><td><div>bootstrap3_inline</div></td></tr><tr><td style="font-weight:bold;vertical-align:top;">generic_patterns</td><td style="vertical-align:top;">:</td><td><div><table><tr><td><div>*</div></td></tr></table></div></td></tr><tr><td style="font-weight:bold;vertical-align:top;">google_analytics_id</td><td style="vertical-align:top;">:</td><td><div>None</div></td></tr><tr><td style="font-weight:bold;vertical-align:top;">headers</td><td style="vertical-align:top;">:</td><td><div><table><tr><td style="font-weight:bold;vertical-align:top;">X-Powered-By</td><td style="vertical-align:top;">:</td><td><div>web2py</div></td></tr></table></div></td></tr><tr><td style="font-weight:bold;vertical-align:top;">logo</td><td style="vertical-align:top;">:</td><td><div><a class="navbar-brand" href="http://www.web2py.com/" id="web2py-logo"><b>Cabshare</b>&trade;&nbsp;</a></div></td></tr><tr><td style="font-weight:bold;vertical-align:top;">menu</td><td style="vertical-align:top;">:</td><td><div><table><tr><td><div><table><tr><td><div>Home</div></td></tr><tr><td><div>False</div></td></tr><tr><td><div>/Cabshare/default/index</div></td></tr><tr><td><div><table></table></div></td></tr></table></div></td></tr><tr><td><div><table><tr><td><div>My Trips</div></td></tr><tr><td><div>False</div></td></tr><tr><td><div>#</div></td></tr><tr><td><div><table><tr><td><div><table><tr><td><div>Pending Trips</div></td></tr><tr><td><div>False</div></td></tr><tr><td><div>/Cabshare/default/PendingTrips</div></td></tr></table></div></td></tr><tr><td><div><table><tr><td><div>Previous Trips</div></td></tr><tr><td><div>False</div></td></tr><tr><td><div>/Cabshare/default/PrevTrips</div></td></tr></table></div></td></tr></table></div></td></tr></table></div></td></tr><tr><td><div><table><tr><td><div>My Profile</div></td></tr><tr><td><div>False</div></td></tr><tr><td><div>/Cabshare/default/myprofile</div></td></tr><tr><td><div><table></table></div></td></tr></table></div></td></tr></table></div></td></tr><tr><td style="font-weight:bold;vertical-align:top;">meta</td><td style="vertical-align:top;">:</td><td><div><table><tr><td style="font-weight:bold;vertical-align:top;">author</td><td style="vertical-align:top;">:</td><td><div>Your Name &lt;you@example.com&gt;</div></td></tr><tr><td style="font-weight:bold;vertical-align:top;">description</td><td style="vertical-align:top;">:</td><td><div>a cool new app</div></td></tr><tr><td style="font-weight:bold;vertical-align:top;">generator</td><td style="vertical-align:top;">:</td><td><div>Web2py Web Framework</div></td></tr><tr><td style="font-weight:bold;vertical-align:top;">keywords</td><td style="vertical-align:top;">:</td><td><div><table><tr><td><div>web2py</div></td></tr><tr><td><div>python</div></td></tr><tr><td><div>framework</div></td></tr></table></div></td></tr></table></div></td></tr><tr><td style="font-weight:bold;vertical-align:top;">models_to_run</td><td style="vertical-align:top;">:</td><td><div><table><tr><td><div>^\\w+\\.py$</div></td></tr><tr><td><div>^default/\\w+\\.py$</div></td></tr><tr><td><div>^default/fill_feedback/\\w+\\.py$</div></td></tr></table></div></td></tr><tr><td style="font-weight:bold;vertical-align:top;">postprocessing</td><td style="vertical-align:top;">:</td><td><div><table></table></div></td></tr><tr><td style="font-weight:bold;vertical-align:top;">session_client</td><td style="vertical-align:top;">:</td><td><div>127.0.0.1</div></td></tr><tr><td style="font-weight:bold;vertical-align:top;">session_cookie_compression_level</td><td style="vertical-align:top;">:</td><td><div>None</div></td></tr><tr><td style="font-weight:bold;vertical-align:top;">session_cookie_expires</td><td style="vertical-align:top;">:</td><td><div>None</div></td></tr><tr><td style="font-weight:bold;vertical-align:top;">session_data_name</td><td style="vertical-align:top;">:</td><td><div>session_data_cabshare</div></td></tr><tr><td style="font-weight:bold;vertical-align:top;">session_file</td><td style="vertical-align:top;">:</td><td><div>&lt;open file &#x27;/home/krishna/ACADEMICS/SEM(1-2)/ASGN AND QUESTIONS/ITWS-2/PROJECT/V5/PROJECT/web2py/applications/Cabshare/sessions/0df/123/127.0.0.1-0ad66feb-6b00-4991-85ca-fd5afd61c597&#x27;, mode &#x27;rb+&#x27; at 0x7f8244575390&gt;</div></td></tr><tr><td style="font-weight:bold;vertical-align:top;">session_filename</td><td style="vertical-align:top;">:</td><td><div>/home/krishna/ACADEMICS/SEM(1-2)/ASGN AND QUESTIONS/ITWS-2/PROJECT/V5/PROJECT/web2py/applications/Cabshare/sessions/127.0.0.1-0ad66feb-6b00-4991-85ca-fd5afd61c597</div></td></tr><tr><td style="font-weight:bold;vertical-align:top;">session_hash</td><td style="vertical-align:top;">:</td><td><div>5ceaafc0f72649f7a42172e56449a93d</div></td></tr><tr><td style="font-weight:bold;vertical-align:top;">session_id</td><td style="vertical-align:top;">:</td><td><div>127.0.0.1-0ad66feb-6b00-4991-85ca-fd5afd61c597</div></td></tr><tr><td style="font-weight:bold;vertical-align:top;">session_id_name</td><td style="vertical-align:top;">:</td><td><div>session_id_cabshare</div></td></tr><tr><td style="font-weight:bold;vertical-align:top;">session_locked</td><td style="vertical-align:top;">:</td><td><div>True</div></td></tr><tr><td style="font-weight:bold;vertical-align:top;">session_masterapp</td><td style="vertical-align:top;">:</td><td><div>Cabshare</div></td></tr><tr><td style="font-weight:bold;vertical-align:top;">session_new</td><td style="vertical-align:top;">:</td><td><div>False</div></td></tr><tr><td style="font-weight:bold;vertical-align:top;">session_storage_type</td><td style="vertical-align:top;">:</td><td><div>file</div></td></tr><tr><td style="font-weight:bold;vertical-align:top;">status</td><td style="vertical-align:top;">:</td><td><div>200</div></td></tr><tr><td style="font-weight:bold;vertical-align:top;">subtitle</td><td style="vertical-align:top;">:</td><td><div></div></td></tr><tr><td style="font-weight:bold;vertical-align:top;">title</td><td style="vertical-align:top;">:</td><td><div>Cabshare</div></td></tr><tr><td style="font-weight:bold;vertical-align:top;">view</td><td style="vertical-align:top;">:</td><td><div>default/fill_feedback.html</div></td></tr></table></div>'
tRp134
sS'locals'
p135
(dp136
g4
S"'/home/krishna/ACADEMICS/SEM(1-2)/ASGN AND QUESTI...b2py/applications/Cabshare/controllers/default.py'"
p137
sg6
S"'# -*- coding: utf-8 -*-\\n# this file is released ...\\n\\nresponse._vars=response._caller(fill_feedback)\\n'"
p138
sssS'traceback'
p139
S'Traceback (most recent call last):\n  File "/home/krishna/ACADEMICS/SEM(1-2)/ASGN AND QUESTIONS/ITWS-2/PROJECT/V5/PROJECT/web2py/gluon/restricted.py", line 226, in restricted\n    ccode = compile2(code, layer)\n  File "/home/krishna/ACADEMICS/SEM(1-2)/ASGN AND QUESTIONS/ITWS-2/PROJECT/V5/PROJECT/web2py/gluon/restricted.py", line 209, in compile2\n    return compile(code.rstrip().replace(\'\\r\\n\', \'\\n\') + \'\\n\', layer, \'exec\')\n  File "/home/krishna/ACADEMICS/SEM(1-2)/ASGN AND QUESTIONS/ITWS-2/PROJECT/V5/PROJECT/web2py/applications/Cabshare/controllers/default.py", line 115\n    return locals()\nSyntaxError: \'return\' outside function\n'
p140
s.